(dp0
S'note'
p1
S'testing from dynamo'
p2
sS'curves'
p3
(lp4
(F138039.41864930894
F74829.349532158143
F69117.359993214588
tp5
a(F138039.41864930894
F76012.088840285025
F69117.359993214588
tp6
a(F138039.41864930894
F77194.8281484119
F69117.359993214588
tp7
a(F138039.41864930894
F78377.5674565388
F69117.359993214588
tp8
a(F138039.41864930897
F79560.306764665685
F69117.359993214588
tp9
a(F138039.41864930897
F80743.046072792582
F69117.359993214588
tp10
a(F138039.41864930897
F81925.785380919449
F69117.359993214588
tp11
a(F138039.41864930897
F83108.524689046346
F69117.359993214588
tp12
a(F138039.41864930897
F84291.263997173228
F69117.359993214588
tp13
a(F138039.41864930897
F85474.003305300124
F69117.359993214588
tp14
a(F138039.41864930897
F86656.742613426992
F69117.359993214588
tp15
a(F138039.41864930897
F87839.481921553888
F69117.359993214588
tp16
a(F138039.41864930897
F89022.22122968077
F69117.359993214588
tp17
a(F138039.418649309
F90204.960537807667
F69117.359993214588
tp18
a(F138039.418649309
F91387.699845934534
F69117.359993214588
tp19
a(F138039.418649309
F92570.439154061431
F69117.359993214588
tp20
a(F138039.418649309
F93753.178462188313
F69117.359993214588
tp21
a(F138039.418649309
F94935.917770315209
F69117.359993214588
tp22
a(F138039.418649309
F96118.657078442076
F69117.359993214588
tp23
a(F138039.418649309
F97301.396386568973
F69117.359993214588
tp24
a(F138039.418649309
F98484.135694695855
F69117.359993214588
tp25
a(F138039.418649309
F99666.875002822751
F69117.359993214588
tp26
a(F138039.418649309
F100849.61431094962
F69117.359993214588
tp27
a(F138039.418649309
F102032.35361907652
F69117.359993214588
tp28
a(F138039.418649309
F103215.0929272034
F69117.359993214588
tp29
a(F138039.418649309
F104397.83223533029
F69117.359993214588
tp30
a(F138039.418649309
F105580.57154345718
F69117.359993214588
tp31
a(F138039.418649309
F106763.31085158406
F69117.359993214588
tp32
a(F138039.418649309
F107946.05015971094
F69117.359993214588
tp33
a(F138039.418649309
F109128.78946783784
F69117.359993214588
tp34
a(F138039.418649309
F110311.52877596472
F69117.359993214588
tp35
a(F138039.418649309
F111494.2680840916
F69117.359993214588
tp36
a(F138039.41864930902
F112677.00739221848
F69117.359993214588
tp37
a(F138039.41864930902
F113859.74670034538
F69117.359993214588
tp38
a(F138039.41864930902
F115042.48600847226
F69117.359993214588
tp39
a(F138039.41864930902
F116225.22531659914
F69117.359993214588
tp40
a(F138039.41864930902
F117407.96462472602
F69117.359993214588
tp41
a(F138039.41864930902
F118590.70393285292
F69117.359993214588
tp42
a(F138039.41864930902
F119773.4432409798
F69117.359993214588
tp43
a(F138039.41864930902
F120956.18254910668
F69117.359993214588
tp44
a(F138039.41864930902
F122138.92185723357
F69117.359993214588
tp45
a(F138039.41864930902
F123321.66116536046
F69117.359993214588
tp46
a(F138039.41864930902
F124504.40047348735
F69117.359993214588
tp47
a(F138039.41864930902
F125687.13978161424
F69117.359993214588
tp48
a(F138039.41864930902
F126869.87908974114
F69117.359993214588
tp49
a(F138039.41864930902
F128052.61839786802
F69117.359993214588
tp50
a(F138039.41864930902
F129235.35770599492
F69117.359993214588
tp51
a(F138039.41864930902
F130418.0970141218
F69117.359993214588
tp52
a(F138039.41864930902
F131600.83632224871
F69117.359993214588
tp53
a(F138039.41864930902
F132783.57563037559
F69117.359993214588
tp54
a(F138039.41864930905
F133966.31493850247
F69117.359993214588
tp55
a(F138039.41864930905
F135149.05424662936
F69117.359993214588
tp56
a(F138039.41864930905
F136331.79355475627
F69117.359993214588
tp57
a(F138039.41864930905
F137514.53286288315
F69117.359993214588
tp58
a(F138039.41864930905
F138697.27217101006
F69117.359993214588
tp59
a(F137145.85903974084
F138986.45186956861
F69117.359993214588
tp60
a(F135963.11973161393
F138986.45186956861
F69117.359993214588
tp61
a(F134780.38042348705
F138986.45186956861
F69117.359993214588
tp62
a(F133597.64111536017
F138986.45186956861
F69117.359993214588
tp63
a(F132414.90180723328
F138986.45186956861
F69117.359993214588
tp64
a(F131232.1624991064
F138986.45186956861
F69117.359993214588
tp65
a(F130049.42319097952
F138986.45186956861
F69117.359993214588
tp66
a(F128866.68388285262
F138986.45186956864
F69117.359993214588
tp67
a(F127683.94457472574
F138986.45186956864
F69117.359993214588
tp68
a(F126501.20526659884
F138986.45186956864
F69117.359993214588
tp69
a(F125318.46595847198
F138986.45186956864
F69117.359993214588
tp70
a(F124135.72665034508
F138986.45186956867
F69117.359993214588
tp71
a(F122952.9873422182
F138986.45186956867
F69117.359993214588
tp72
a(F121770.2480340913
F138986.45186956867
F69117.359993214588
tp73
a(F120587.50872596444
F138986.45186956867
F69117.359993214588
tp74
a(F119404.76941783754
F138986.45186956867
F69117.359993214588
tp75
a(F118222.03010971066
F138986.45186956867
F69117.359993214588
tp76
a(F117039.29080158376
F138986.45186956867
F69117.359993214588
tp77
a(F115856.55149345689
F138986.45186956867
F69117.359993214588
tp78
a(F114673.81218533
F138986.45186956867
F69117.359993214588
tp79
a(F113491.07287720311
F138986.45186956867
F69117.359993214588
tp80
a(F112308.33356907622
F138986.4518695687
F69117.359993214588
tp81
a(F111125.59426094932
F138986.4518695687
F69117.359993214588
tp82
a(F109942.85495282245
F138986.4518695687
F69117.359993214588
tp83
a(F108760.11564469557
F138986.4518695687
F69117.359993214588
tp84
a(F107577.37633656868
F138986.4518695687
F69117.359993214588
tp85
a(F106394.63702844178
F138986.4518695687
F69117.359993214588
tp86
a(F105211.89772031491
F138986.4518695687
F69117.359993214588
tp87
a(F104029.15841218803
F138986.4518695687
F69117.359993214588
tp88
a(F102846.41910406113
F138986.4518695687
F69117.359993214588
tp89
a(F101663.67979593424
F138986.45186956873
F69117.359993214588
tp90
a(F100480.94048780737
F138986.45186956873
F69117.359993214588
tp91
a(F99298.201179680487
F138986.45186956873
F69117.359993214588
tp92
a(F98115.461871553591
F138986.45186956873
F69117.359993214588
tp93
a(F96932.7225634267
F138986.45186956873
F69117.359993214588
tp94
a(F95749.983255299827
F138986.45186956876
F69117.359993214588
tp95
a(F94567.243947172945
F138986.45186956876
F69117.359993214588
tp96
a(F93384.504639046048
F138986.45186956876
F69117.359993214588
tp97
a(F92201.765330919152
F138986.45186956876
F69117.359993214588
tp98
a(F91019.026022792284
F138986.45186956876
F69117.359993214588
tp99
a(F89836.2867146654
F138986.45186956876
F69117.359993214588
tp100
a(F88653.5474065385
F138986.45186956876
F69117.359993214588
tp101
a(F87470.80809841161
F138986.45186956876
F69117.359993214588
tp102
a(F86288.068790284728
F138986.45186956876
F69117.359993214588
tp103
a(F85105.329482157831
F138986.45186956879
F69117.359993214588
tp104
a(F83922.590174030949
F138986.45186956879
F69117.359993214588
tp105
a(F82739.850865904053
F138986.45186956879
F69117.359993214588
tp106
a(F81557.111557777156
F138986.45186956879
F69117.359993214588
tp107
a(F80374.372249650274
F138986.45186956879
F69117.359993214588
tp108
a(F79191.632941523378
F138986.45186956882
F69117.359993214588
tp109
a(F78545.477124922239
F138449.86837804312
F69117.359993214588
tp110
a(F78545.477124922239
F137267.12906991623
F69117.359993214588
tp111
a(F78545.477124922225
F136084.38976178935
F69117.359993214588
tp112
a(F78545.477124922225
F134901.65045366247
F69117.359993214588
tp113
a(F78545.477124922225
F133718.91114553559
F69117.359993214588
tp114
a(F78545.477124922225
F132536.17183740871
F69117.359993214588
tp115
a(F78545.477124922225
F131353.4325292818
F69117.359993214588
tp116
a(F78545.477124922225
F130170.69322115493
F69117.359993214588
tp117
a(F78545.477124922225
F128987.95391302803
F69117.359993214588
tp118
a(F78545.477124922225
F127805.21460490115
F69117.359993214588
tp119
a(F78545.477124922225
F126622.47529677427
F69117.359993214588
tp120
a(F78545.477124922225
F125439.73598864739
F69117.359993214588
tp121
a(F78545.47712492221
F124256.99668052049
F69117.359993214588
tp122
a(F78545.47712492221
F123074.25737239361
F69117.359993214588
tp123
a(F78545.47712492221
F121891.51806426673
F69117.359993214588
tp124
a(F78545.47712492221
F120708.77875613984
F69117.359993214588
tp125
a(F78545.4771249222
F119526.03944801295
F69117.359993214588
tp126
a(F78545.4771249222
F118343.30013988607
F69117.359993214588
tp127
a(F78545.4771249222
F117160.56083175918
F69117.359993214588
tp128
a(F78545.4771249222
F115977.8215236323
F69117.359993214588
tp129
a(F78545.4771249222
F114795.0822155054
F69117.359993214588
tp130
a(F78545.4771249222
F113612.34290737852
F69117.359993214588
tp131
a(F78545.4771249222
F112429.60359925164
F69117.359993214588
tp132
a(F78545.4771249222
F111246.86429112476
F69117.359993214588
tp133
a(F78545.4771249222
F110064.12498299786
F69117.359993214588
tp134
a(F78545.477124922181
F108881.38567487098
F69117.359993214588
tp135
a(F78545.477124922181
F107698.6463667441
F69117.359993214588
tp136
a(F78414.773959507947
F106646.61022403145
F69117.359993214588
tp137
a(F77232.034651381065
F106646.61022403145
F69117.359993214588
tp138
a(F76049.295343254184
F106646.61022403145
F69117.359993214588
tp139
a(F74866.556035127287
F106646.61022403146
F69117.359993214588
tp140
a(F73683.8167270004
F106646.61022403146
F69117.359993214588
tp141
a(F72501.077418873523
F106646.61022403146
F69117.359993214588
tp142
a(F71318.338110746641
F106646.61022403146
F69117.359993214588
tp143
a(F70135.598802619745
F106646.61022403146
F69117.359993214588
tp144
a(F68952.859494492863
F106646.61022403146
F69117.359993214588
tp145
a(F67770.120186365981
F106646.61022403148
F69117.359993214588
tp146
a(F66587.3808782391
F106646.61022403148
F69117.359993214588
tp147
a(F65404.64157011221
F106646.61022403148
F69117.359993214588
tp148
a(F64221.902261985328
F106646.61022403148
F69117.359993214588
tp149
a(F63039.162953858438
F106646.61022403148
F69117.359993214588
tp150
a(F61856.423645731556
F106646.61022403151
F69117.359993214588
tp151
a(F60673.684337604667
F106646.61022403151
F69117.359993214588
tp152
a(F59490.945029477785
F106646.61022403151
F69117.359993214588
tp153
a(F58308.205721350896
F106646.61022403151
F69117.359993214588
tp154
a(F57125.466413224014
F106646.61022403151
F69117.359993214588
tp155
a(F55942.727105097118
F106646.61022403151
F69117.359993214588
tp156
a(F54945.477124922174
F106461.12089607959
F69117.359993214588
tp157
a(F54945.477124922174
F105278.3815879527
F69117.359993214588
tp158
a(F54945.477124922174
F104095.64227982581
F69117.359993214588
tp159
a(F54945.477124922159
F102912.90297169892
F69117.359993214588
tp160
a(F54945.477124922159
F101730.16366357205
F69117.359993214588
tp161
a(F54945.477124922159
F100547.42435544515
F69117.359993214588
tp162
a(F54945.477124922159
F99364.685047318271
F69117.359993214588
tp163
a(F54945.477124922152
F98181.945739191375
F69117.359993214588
tp164
a(F54945.477124922152
F96999.206431064507
F69117.359993214588
tp165
a(F54945.477124922152
F95816.467122937611
F69117.359993214588
tp166
a(F54945.477124922152
F94633.727814810729
F69117.359993214588
tp167
a(F54945.477124922152
F93450.988506683832
F69117.359993214588
tp168
a(F54945.477124922145
F92268.249198556965
F69117.359993214588
tp169
a(F54945.477124922145
F91085.509890430068
F69117.359993214588
tp170
a(F54945.477124922145
F89902.770582303187
F69117.359993214588
tp171
a(F54945.477124922145
F88720.03127417629
F69117.359993214588
tp172
a(F54945.477124922145
F87537.291966049423
F69117.359993214588
tp173
a(F54945.477124922138
F86354.552657922526
F69117.359993214588
tp174
a(F54945.477124922138
F85171.813349795644
F69117.359993214588
tp175
a(F54945.477124922138
F83989.074041668748
F69117.359993214588
tp176
a(F54945.477124922138
F82806.33473354188
F69117.359993214588
tp177
a(F54945.477124922123
F81623.595425414984
F69117.359993214588
tp178
a(F54945.477124922123
F80440.8561172881
F69117.359993214588
tp179
a(F54945.477124922123
F79258.1168091612
F69117.359993214588
tp180
a(F54945.477124922123
F78075.377501034338
F69117.359993214588
tp181
a(F54945.477124922123
F76892.638192907441
F69117.359993214588
tp182
a(F54945.477124922116
F75709.898884780559
F69117.359993214588
tp183
a(F54945.477124922116
F74527.159576653663
F69117.359993214588
tp184
a(F55247.667080426858
F73646.610224031523
F69117.359993214588
tp185
a(F56430.40638855374
F73646.610224031509
F69117.359993214588
tp186
a(F57613.145696680629
F73646.610224031509
F69117.359993214588
tp187
a(F58795.885004807511
F73646.610224031509
F69117.359993214588
tp188
a(F59978.624312934393
F73646.610224031509
F69117.359993214588
tp189
a(F61161.363621061282
F73646.610224031509
F69117.359993214588
tp190
a(F62344.102929188164
F73646.6102240315
F69117.359993214588
tp191
a(F63526.842237315053
F73646.6102240315
F69117.359993214588
tp192
a(F64709.581545441935
F73646.6102240315
F69117.359993214588
tp193
a(F65892.320853568817
F73646.610224031479
F69117.359993214588
tp194
a(F67075.060161695714
F73646.610224031479
F69117.359993214588
tp195
a(F68257.7994698226
F73646.610224031479
F69117.359993214588
tp196
a(F69440.538777949478
F73646.610224031479
F69117.359993214588
tp197
a(F70623.27808607636
F73646.610224031465
F69117.359993214588
tp198
a(F71806.017394203256
F73646.610224031465
F69117.359993214588
tp199
a(F72988.756702330138
F73646.610224031465
F69117.359993214588
tp200
a(F74171.49601045702
F73646.610224031465
F69117.359993214588
tp201
a(F75354.2353185839
F73646.610224031465
F69117.359993214588
tp202
a(F76536.9746267108
F73646.61022403145
F69117.359993214588
tp203
a(F77719.71393483768
F73646.61022403145
F69117.359993214588
tp204
a(F78902.453242964562
F73646.610224031436
F69117.359993214588
tp205
a(F80085.192551091459
F73646.610224031436
F69117.359993214588
tp206
a(F81267.931859218341
F73646.610224031436
F69117.359993214588
tp207
a(F82450.671167345208
F73646.610224031436
F69117.359993214588
tp208
a(F83633.4104754721
F73646.610224031436
F69117.359993214588
tp209
a(F84816.149783599
F73646.610224031421
F69117.359993214588
tp210
a(F85998.889091725883
F73646.610224031421
F69117.359993214588
tp211
a(F87181.628399852751
F73646.610224031421
F69117.359993214588
tp212
a(F88364.367707979647
F73646.610224031421
F69117.359993214588
tp213
a(F89547.107016106544
F73646.610224031421
F69117.359993214588
tp214
a(F90729.846324233426
F73646.6102240314
F69117.359993214588
tp215
a(F91912.5856323603
F73646.6102240314
F69117.359993214588
tp216
a(F93095.324940487189
F73646.610224031392
F69117.359993214588
tp217
a(F94278.064248614086
F73646.610224031392
F69117.359993214588
tp218
a(F95460.803556740968
F73646.610224031392
F69117.359993214588
tp219
a(F96643.542864867835
F73646.610224031392
F69117.359993214588
tp220
a(F97826.282172994732
F73646.610224031392
F69117.359993214588
tp221
a(F99009.021481121628
F73646.610224031378
F69117.359993214588
tp222
a(F100191.76078924851
F73646.610224031378
F69117.359993214588
tp223
a(F101374.50009737538
F73646.610224031363
F69117.359993214588
tp224
a(F102557.23940550227
F73646.610224031363
F69117.359993214588
tp225
a(F103739.97871362917
F73646.610224031363
F69117.359993214588
tp226
a(F104922.71802175605
F73646.610224031363
F69117.359993214588
tp227
a(F106105.45732988293
F73646.610224031363
F69117.359993214588
tp228
a(F107288.19663800983
F73646.610224031348
F69117.359993214588
tp229
a(F108470.93594613673
F73646.610224031348
F69117.359993214588
tp230
a(F109653.67525426362
F73646.610224031348
F69117.359993214588
tp231
a(F110836.41456239051
F73646.610224031348
F69117.359993214588
tp232
a(F112019.1538705174
F73646.610224031348
F69117.359993214588
tp233
a(F113201.89317864428
F73646.610224031334
F69117.359993214588
tp234
a(F114384.63248677118
F73646.610224031334
F69117.359993214588
tp235
a(F115567.37179489808
F73646.610224031319
F69117.359993214588
tp236
a(F116750.11110302496
F73646.610224031319
F69117.359993214588
tp237
a(F117932.85041115186
F73646.610224031319
F69117.359993214588
tp238
a(F119115.58971927874
F73646.610224031319
F69117.359993214588
tp239
a(F120298.32902740563
F73646.610224031319
F69117.359993214588
tp240
a(F121481.06833553253
F73646.6102240313
F69117.359993214588
tp241
a(F122663.80764365941
F73646.6102240313
F69117.359993214588
tp242
a(F123846.54695178631
F73646.6102240313
F69117.359993214588
tp243
a(F125029.28625991321
F73646.6102240313
F69117.359993214588
tp244
a(F126212.02556804009
F73646.61022403129
F69117.359993214588
tp245
a(F127394.76487616698
F73646.61022403129
F69117.359993214588
tp246
a(F128577.50418429387
F73646.61022403129
F69117.359993214588
tp247
a(F129760.24349242076
F73646.610224031276
F69117.359993214588
tp248
a(F130942.98280054766
F73646.610224031276
F69117.359993214588
tp249
a(F132125.72210867456
F73646.610224031276
F69117.359993214588
tp250
a(F133308.46141680144
F73646.610224031276
F69117.359993214588
tp251
a(F134491.20072492832
F73646.610224031276
F69117.359993214588
tp252
a(F135673.9400330552
F73646.610224031261
F69117.359993214588
tp253
a(F136856.67934118211
F73646.610224031261
F69117.359993214588
tp254
asS'perpendicular_dist'
p255
I55
sS'points'
p256
(lp257
(F149022.49852066394
F45420.592051724678
F68217.359993214573
tp258
a(F149022.49852066394
F49877.575021990553
F68217.359993214573
tp259
a(F145533.73844565431
F51579.157004260218
F68217.359993214573
tp260
a(F121595.57201541126
F57375.930646854926
F67817.359993214573
tp261
a(F117358.09634652766
F57246.774838041194
F67557.359993214588
tp262
a(F114826.46902831671
F56273.76059845939
F67557.359993214588
tp263
a(F109397.50258071416
F53263.156105585746
F67627.359993214573
tp264
a(F114555.23898203658
F50610.207901105932
F68373.359993214573
tp265
a(F111931.83875503836
F45420.592051724678
F69157.359993214588
tp266
a(F125932.77769006242
F45420.592051724678
F70857.359993214588
tp267
a(F124876.61753216085
F51476.311562674149
F69357.359993214573
tp268
a(F9895.32527082927
F99194.066540571832
F76987.359993214573
tp269
a(F10953.468199213514
F99496.911997487914
F76987.359993214573
tp270
a(F13500.656142567575
F99496.911997487827
F76987.359993214573
tp271
a(F18523.87533958898
F92637.3454337211
F77349.359993214573
tp272
a(F34613.9286398514
F84570.845333821824
F78270.359993214573
tp273
a(F36238.82723136829
F83272.229318363417
F78417.359993214573
tp274
a(F46389.157689061212
F70898.565418636616
F79201.359993214573
tp275
a(F47098.806818032288
F67207.190701570784
F79456.359993214588
tp276
a(F54115.22717079951
F67207.190701570726
F79456.359993214588
tp277
a(F54115.227170799524
F71517.187242218075
F79456.359993214588
tp278
a(F51480.712033874821
F71517.187242218075
F79457.359993214588
tp279
a(F47614.974552666114
F73346.0559415025
F79201.359993214573
tp280
a(F38490.677428219955
F84468.943655327952
F78417.359993214573
tp281
a(F35231.574309064395
F87070.835015876524
F78270.359993214573
tp282
a(F19974.494718830887
F94699.877791730265
F77349.359993214573
tp283
a(F15828.773601277271
F101407.99326321503
F76987.359993214573
tp284
a(F15828.77360127728
F110778.97905136924
F76677.359993214573
tp285
a(F16423.97356283935
F113707.07338543482
F76677.359993214573
tp286
a(F24979.414165383776
F133881.8354872003
F76807.359993214573
tp287
a(F22263.911921202689
F133881.8354872003
F76807.359993214573
tp288
a(F13923.973562839346
F114215.25370141496
F76677.359993214573
tp289
a(F13328.773601277277
F111287.15936734936
F76677.359993214573
tp290
a(F13328.773601277264
F102069.83882240653
F76937.359993214588
tp291
a(F10543.836678190648
F102069.83882240653
F76987.359993214573
tp292
a(F9473.9653936905161
F101759.6244403481
F76987.359993214573
tp293
a(F6599.7362228872744
F99939.834271544838
F76987.359993214573
tp294
a(F7938.2108330382152
F97973.8436617383
F76987.359993214573
tp295
a(F31642.685578650919
F86060.43222348165
F78064.359993214559
tp296
a(F32764.716151834142
F88304.3454195006
F78064.359993214559
tp297
a(F-11934.563584723537
F133889.8388224066
F76917.359993214559
tp298
a(F-11934.563584723554
F121069.03496786574
F77717.359993214588
tp299
a(F-14839.463711608154
F121069.03496786575
F77717.359993214588
tp300
a(F-14839.463711608163
F117681.83548720041
F77717.359993214588
tp301
a(F-12439.463711608154
F117681.83548720041
F77717.359993214588
tp302
a(F-12439.46371160817
F104794.31655524186
F77717.359993214588
tp303
a(F-10571.055960727712
F99822.306617856913
F77717.359993214588
tp304
a(F-5330.0233676136468
F97249.853842527751
F77717.359993214588
tp305
a(F-3979.4746395990492
F97093.0539905695
F77717.359993214588
tp306
a(F-2038.8518169515644
F97599.494398805648
F77717.359993214588
tp307
a(F-265.22718967599207
F97838.536625088353
F77717.359993214588
tp308
a(F1091.6679296685879
F97495.28308213217
F77717.359993214588
tp309
a(F2053.3838372742557
F96858.512865203578
F77517.359993214573
tp310
a(F7373.3107354748236
F100449.96354179965
F76987.359993214573
tp311
a(F9485.693749806398
F101766.99336549046
F76987.359993214573
tp312
a(F10543.836678190648
F102069.83882240653
F76987.359993214573
tp313
a(F13328.773601277264
F102069.83882240653
F76957.359993214588
tp314
a(F13328.773601277277
F111287.15936734929
F76677.359993214573
tp315
a(F13923.973562839323
F114215.2537014149
F76677.359993214573
tp316
a(F22267.305867492269
F133889.83882240648
F76807.359993214573
tp317
a(F9895.32527082926
F99194.066540571817
F76987.359993214573
tp318
a(F8725.08192860162
F98464.442522468657
F76987.359993214573
tp319
a(F8226.1478238674063
F98119.728575303321
F76987.359993214573
tp320
a(F8005.5177332665062
F97982.169994613389
F76987.359993214573
tp321
a(F7818.26849273149
F97674.813046653479
F76987.359993214573
tp322
a(F8254.57936010433
F96931.22243341479
F76987.359993214573
tp323
a(F9116.208447967505
F96453.060351666412
F77667.359993214573
tp324
a(F9408.9589741260988
F97036.024163493581
F77517.359993214573
tp325
a(F27823.406055423486
F87804.225085584214
F77877.626312325956
tp326
a(F27894.155179016845
F87944.664642765623
F77874.750225482057
tp327
a(F18842.631059106578
F92470.725104668891
F77217.359993214573
tp328
a(F13500.65614256757
F99496.911997487827
F76987.359993214573
tp329
a(F10953.46819921355
F99496.911997487885
F76987.359993214573
tp330
a(F22478.578738329968
F77142.74405348688
F77957.359993214573
tp331
a(F31503.741922372334
F72608.82417093424
F77647.359993214573
tp332
a(F32381.92857172482
F74293.694554345057
F77647.359993214573
tp333
a(F32836.348483454763
F75177.041699888272
F77647.359993214573
tp334
a(F34189.054991119338
F74528.824834848565
F77647.359993214573
tp335
a(F33920.154324356336
F73992.4551569077
F77647.359993214573
tp336
a(F36567.964443378019
F72582.100033682946
F77647.359993214573
tp337
a(F36980.747283491051
F73357.0612920295
F77647.359993214573
tp338
a(F38320.204674408516
F72643.599786595063
F77647.359993214573
tp339
a(F37764.488531921605
F71577.4145163568
F77647.359993214573
tp340
a(F46149.107769573282
F67207.190701570784
F79457.359993214588
tp341
a(F47098.8068180323
F67207.190701570828
F79457.359993214588
tp342
a(F46389.157689061278
F70898.565418636514
F79201.35999321453
tp343
a(F36238.82723136829
F83272.229318363417
F78417.359993214559
tp344
a(F34613.9286398514
F84570.845333821824
F77663.359993214588
tp345
a(F33070.344677920992
F85344.697349769573
F77663.359993214588
tp346
a(F32093.848689184986
F83396.904340203
F77707.359993214573
tp347
a(F29618.366941068576
F84643.9758040099
F77767.359993214588
tp348
a(F27013.147258606507
F79447.40690416946
F77767.359993214588
tp349
a(F24312.243243983048
F80801.152001714479
F77827.359993214559
tp350
a(F54095.829438073357
F79286.4518695686
F79457.359993214588
tp351
a(F50506.428262950372
F79286.4518695686
F79407.359993214573
tp352
a(F49094.269494194996
F79639.603250582732
F79407.359993214573
tp353
a(F42462.69018886851
F83177.713741503758
F79117.33560020267
tp354
a(F42579.490017646247
F83396.6349225623
F79017.359993214573
tp355
a(F35231.574309064446
F87070.835015876524
F78358.704256283425
tp356
a(F38490.677428219984
F84468.943655327908
F78417.359993214573
tp357
a(F47614.974552666143
F73346.055941502476
F79201.359993214573
tp358
a(F51480.712033874835
F71517.187242218075
F79457.359993214588
tp359
a(F54095.829438073357
F71517.18724221806
F79457.359993214588
tp360
a(F45342.736795348494
F67627.486666745259
F79407.359993214573
tp361
a(F27013.147259576552
F79447.406903683266
F77767.359993214588
tp362
a(F28372.886698200989
F82159.646384372434
F77767.359993214588
tp363
a(F25694.047993309981
F83509.162819932055
F77827.359993214559
tp364
a(F24331.822191302039
F80791.338656329157
F77827.359993214559
tp365
a(F137876.91864930882
F95443.485642290019
F69057.359993214573
tp366
a(F137876.91864930885
F74123.59494070537
F69057.359993214573
tp367
a(F121976.91864930882
F74123.594940705356
F67847.359993214573
tp368
a(F122225.54353524222
F72543.029957512743
F67797.359993214588
tp369
a(F129317.68204607669
F64763.667235141947
F67897.359993214573
tp370
a(F141077.78454896578
F61915.862971935421
F68107.359993214573
tp371
a(F149398.61913492458
F63055.535544105522
F68357.359993214573
tp372
a(F147131.97343171554
F78929.983785858247
F68357.359993214573
tp373
a(F144861.8039185486
F92336.1312377769
F68893.359993214573
tp374
a(F140962.67788303012
F95443.485642290019
F68997.359993214573
tp375
a(F136736.00894525676
F71316.6676304827
F69357.359993214573
tp376
a(F82264.695812078135
F144479.0084287521
F72017.359993214573
tp377
a(F86874.387705423447
F143137.665774859
F72007.359993214573
tp378
a(F98359.338501957158
F161201.43756397138
F71057.359993214573
tp379
a(F103092.02815343351
F162959.36247833844
F70867.359993214573
tp380
a(F144371.08319960005
F143475.89390329047
F68407.359993214588
tp381
a(F147454.91851131566
F137483.01814581174
F68407.359993214588
tp382
a(F148186.13008732765
F146621.81298654529
F68207.359993214573
tp383
a(F143177.04605350495
F146946.33032266758
F68207.359993214573
tp384
a(F101417.29507837576
F166497.29177340705
F70907.359993214573
tp385
a(F98077.96473155811
F165418.39735509834
F71067.359993214573
tp386
a(F86608.5725694165
F147379.09651287881
F71887.359993214573
tp387
a(F84764.695812078164
F147915.63357443569
F71887.359993214573
tp388
a(F84764.695812078178
F164620.37305083129
F72707.359993214573
tp389
a(F77689.128207850372
F167177.8882339386
F72907.359993214588
tp390
a(F63018.886318441771
F141779.2156071713
F74157.359993214573
tp391
a(F65356.182375489894
F140891.765283511
F74107.359993214559
tp392
a(F76860.029790644054
F162087.30686514961
F72857.359993214573
tp393
a(F82264.695812078135
F160293.54508460007
F72857.359993214573
tp394
a(F78514.705767014268
F138994.91146118951
F74017.359993214573
tp395
a(F78514.705767014268
F139240.70941203195
F74017.359993214573
tp396
a(F76728.143674054809
F142812.70892937129
F74017.359993214573
tp397
a(F72812.913638144964
F146084.94251046842
F74017.359993214573
tp398
a(F73216.9246673706
F146568.34202253277
F73617.359993214573
tp399
a(F77132.154703280408
F143296.10844143564
F73617.359993214573
tp400
a(F79143.747331468825
F139275.47359264977
F73617.359993214573
tp401
a(F79743.417273089974
F139275.47359264974
F73617.359993214573
tp402
a(F78159.433431582147
F143935.66009044569
F73617.359993214573
tp403
a(F75470.139576854956
F147922.70219232538
F73617.359993214573
tp404
a(F75992.433247564622
F148274.99372151194
F73217.359993214573
tp405
a(F78681.7271022918
F144287.95161963225
F73217.359993214573
tp406
a(F80374.695812078178
F139272.9401573994
F73217.359993214573
tp407
a(F81568.876641645285
F139272.94015739937
F73217.359993214573
tp408
a(F81568.876641645285
F139797.00230167745
F73217.359993214573
tp409
a(F81425.3290190279
F140477.55323163164
F73217.359993214573
tp410
a(F80154.206636235162
F144357.87735024476
F73217.359993214573
tp411
a(F79809.615668842191
F145541.87561176281
F73217.359993214573
tp412
a(F77088.965333739849
F153016.80097368814
F73217.359993214573
tp413
a(F77680.971684834978
F153232.2736639833
F72817.359993214588
tp414
a(F80401.622019937291
F145757.348302058
F72817.359993214588
tp415
a(F80769.381857069617
F144493.7429002244
F72817.359993214588
tp416
a(F82001.65839454782
F140732.00254075392
F72817.359993214588
tp417
a(F82198.876641645271
F139797.00230167748
F72817.359993214588
tp418
a(F82198.876641645271
F139247.45959040336
F72817.359993214588
tp419
a(F82768.8766416453
F139247.45959040336
F72817.359993214588
tp420
a(F82768.8766416453
F139797.00230167745
F72817.359993214588
tp421
a(F82574.0421185685
F140583.53383403091
F72817.359993214588
tp422
a(F81707.4445193225
F142273.11051673285
F72817.359993214588
tp423
a(F81108.956390954787
F143808.52301079506
F72817.359993214588
tp424
a(F81028.6620859588
F144759.51136910546
F72817.359993214588
tp425
a(F81028.662085958771
F153282.95356905507
F72817.359993214588
tp426
a(F81004.695812078178
F153535.20900751598
F72817.359993214588
tp427
a(F79750.928028805982
F158383.24180557675
F72817.359993214588
tp428
a(F80301.903298969977
F158688.73527073453
F72417.359993214588
tp429
a(F81634.695812078164
F153535.20900751598
F72417.359993214588
tp430
a(F82264.695812078135
F153535.20900751592
F72498.386320555524
tp431
a(F82264.695812078135
F160293.5450846001
F72857.359993214573
tp432
a(F76860.029790643734
F162087.30686514918
F72857.359993214573
tp433
a(F65356.182375490047
F140891.76528351146
F74107.359993214559
tp434
a(F65965.965343440956
F140666.6770075018
F74157.359993214573
tp435
a(F65368.963167806069
F138994.91146119012
F74157.359993214573
tp436
a(F98339.854771024329
F161175.13910430527
F71117.359993214573
tp437
a(F91933.624395118954
F151804.68995950188
F72017.359993214573
tp438
a(F93024.849556271554
F151146.24274083012
F71217.359993214588
tp439
a(F89896.715325939309
F145962.07811410876
F71217.359993214588
tp440
a(F88896.894682567436
F142224.74300572416
F71217.359993214588
tp441
a(F88896.894682567436
F139272.94015739928
F71217.359993214588
tp442
a(F89496.894682567436
F139272.94015739928
F71217.359993214588
tp443
a(F89496.89468256745
F143338.71069584924
F71217.359993214588
tp444
a(F90074.995065237614
F145496.21069584918
F71217.359993214588
tp445
a(F92152.81849482836
F149095.10644505738
F71217.359993214588
tp446
a(F92698.414499212551
F148780.1064450574
F70817.359993214573
tp447
a(F90620.591069621791
F145181.21069584918
F70817.359993214573
tp448
a(F90126.89468256745
F143338.71069584924
F70817.359993214573
tp449
a(F90126.894682567436
F139272.94015739928
F70817.359993214573
tp450
a(F91756.894682567436
F139272.94015739928
F70817.359993214573
tp451
a(F91756.89468256745
F143338.71069584924
F70817.359993214573
tp452
a(F92334.995065237614
F145496.21069584921
F70817.359993214573
tp453
a(F93970.7076853396
F148494.75663649189
F70817.359993214573
tp454
a(F95059.130148850672
F153806.64886631837
F70817.359993214573
tp455
a(F95686.49857501089
F153864.17153886775
F70417.359993214573
tp456
a(F94524.325744734058
F148194.07676217076
F70417.359993214573
tp457
a(F92884.261116308728
F145187.55283277182
F70417.359993214573
tp458
a(F92386.894682567465
F143338.71069584924
F70417.359993214573
tp459
a(F92386.894682567421
F139272.94015739928
F70417.359993214573
tp460
a(F92986.894682567436
F139272.94015739928
F70417.359993214573
tp461
a(F92986.894682567465
F143338.71069584924
F70417.359993214573
tp462
a(F93465.8400164099
F145314.54206472932
F70417.359993214573
tp463
a(F97205.128192058852
F152169.30814172304
F70417.359993214573
tp464
a(F98366.2318847574
F158513.77198531156
F70417.359993214573
tp465
a(F98988.025318974935
F158615.12742504705
F70017.359993214573
tp466
a(F97754.596380501724
F151861.02083163167
F70017.359993214573
tp467
a(F96345.853200935817
F149278.54938121748
F70017.359993214573
tp468
a(F100913.7961193583
F155187.57145874438
F70017.359993214573
tp469
a(F102773.86102178496
F159398.077353198
F70017.359993214573
tp470
a(F103394.36057978713
F159289.08057104761
F69617.359993214588
tp471
a(F101412.22891813872
F154802.26022727051
F69617.359993214588
tp472
a(F97849.266881463089
F150193.26626388333
F69617.359993214588
tp473
a(F102462.55468735412
F154806.55406977434
F69617.359993214588
tp474
a(F104359.76259008089
F157505.3716857117
F69617.359993214588
tp475
a(F104929.74413084488
F157237.0043196101
F69217.359993214573
tp476
a(F102908.03195950165
F154361.07679762683
F69217.359993214573
tp477
a(F97525.338378226777
F148978.38321635197
F69217.359993214573
tp478
a(F95101.9852280912
F144784.5653012557
F69217.359993214573
tp479
a(F97502.456686020581
F148478.38605381406
F69217.359993214573
tp480
a(F109983.73111904005
F156897.1119599333
F69217.359993214573
tp481
a(F110437.54625339982
F156443.29682557352
F68817.359993214573
tp482
a(F97887.350585688415
F147978.08295966327
F68817.359993214573
tp483
a(F95380.928917944766
F142440.7094120321
F68817.359993214573
tp484
a(F95380.92891794481
F138994.91146118945
F68967.359993214588
tp485
a(F137879.1823785365
F138994.9114611893
F69057.359993214573
tp486
a(F137879.18237853644
F106093.48564229003
F69057.359993214573
tp487
a(F140962.67788303015
F106093.48564229003
F68997.359993214573
tp488
a(F144087.38609847386
F109218.1938577345
F68893.359993214573
tp489
a(F146288.99580882676
F130026.85594728778
F68357.359993214573
tp490
a(F147454.91851131557
F137483.01814581105
F68407.359993214588
tp491
a(F147397.15107341117
F138994.91146118933
F68407.359993214588
tp492
a(F145044.4695405832
F143107.88907772378
F68407.359993214588
tp493
a(F103366.83891033326
F162848.58188438008
F70867.359993214573
tp494
a(F85836.894682567436
F139272.94015739931
F72017.359993214573
tp495
a(F85836.894682567436
F140207.27155532691
F72017.359993214573
tp496
a(F86428.392524859082
F142414.77155532679
F72017.359993214573
tp497
a(F86649.524723434151
F142836.626020506
F72017.359993214573
tp498
a(F82538.827311679532
F143340.80395725626
F72017.359993214573
tp499
a(F82890.211098938991
F142556.79683608888
F72017.359993214573
tp500
a(F83776.512008124482
F140877.60793811557
F72017.359993214573
tp501
a(F84044.192673360565
F139797.00230167748
F72017.359993214573
tp502
a(F84044.192673360565
F139272.94015739931
F72017.359993214573
tp503
a(F88266.894682567436
F139272.94015739931
F71617.359993214573
tp504
a(F88266.894682567421
F142224.7430057241
F71617.359993214573
tp505
a(F88961.94465895278
F145510.70810703922
F71617.359993214573
tp506
a(F86981.774057781164
F142113.1928809192
F71617.359993214573
tp507
a(F86466.894682567421
F140207.27155532694
F71617.359993214573
tp508
a(F86466.894682567421
F139272.94015739931
F71617.359993214573
tp509
a(F87844.768423017566
F139272.94015739931
F71617.359993214573
tp510
a(F115119.15551643031
F145278.10267245976
F68157.359993214573
tp511
a(F155458.21433250507
F144732.0691451293
F68207.359993214573
tp512
a(F153238.15116360961
F168013.72590177821
F68207.359993214573
tp513
a(F151094.97029355902
F177774.36998617483
F68207.359993214573
tp514
a(F145702.90839455836
F183060.33350620067
F68207.359993214573
tp515
a(F148351.56149178615
F129632.11197522702
F68357.359993214573
tp516
a(F146194.70753327556
F103488.15575041916
F68881.359993214588
tp517
a(F149730.56838908515
F77061.941504653616
F68357.359993214573
tp518
a(F151456.31605223985
F64501.458407171791
F68207.359993214573
tp519
a(F155306.3552582245
F73054.3530800284
F68207.359993214573
tp520
a(F155330.03399676568
F81145.151254383818
F68207.359993214573
tp521
a(F152876.70495150785
F99720.674720128416
F68207.359993214573
tp522
a(F152876.70495150785
F113278.42816851399
F68207.359993214573
tp523
a(F154864.21752539845
F129530.80750160523
F68207.359993214573
tp524
a(F155482.15951810608
F136505.0112482539
F68207.359993214573
tp525
a(F61940.681266865118
F183552.876937394
F73287.359993214573
tp526
a(F61267.348724260177
F181039.96567800269
F73287.359993214573
tp527
a(F134593.93599118438
F181039.96567800245
F68207.359993214573
tp528
a(F146391.05335619219
F171237.24169075742
F68207.359993214573
tp529
a(F146288.9958088265
F130026.85594728625
F68357.359993214559
tp530
a(F144087.38609847386
F109218.19385773376
F68893.359993214573
tp531
a(F140962.67788303015
F106093.48564229003
F68997.359993214559
tp532
a(F137926.90495150784
F106093.48564229002
F69057.359993214559
tp533
a(F137926.90495150784
F95452.909857650811
F69057.359993214559
tp534
a(F140962.67788303015
F95452.9098576508
F68997.359993214559
tp535
a(F144859.68216888927
F92354.773259721449
F68893.359993214573
tp536
a(F147131.97343171586
F78929.983785856835
F68357.359993214559
tp537
a(F149397.14129009459
F63079.463630809412
F68357.359993214559
tp538
a(F151457.05014353531
F64491.604910415139
F68207.359993214573
tp539
a(F149230.83413218634
F79402.0966901364
F68357.359993214559
tp540
a(F146157.9116976501
F106615.52644435817
F68881.359993214573
tp541
a(F148351.56149178627
F129632.11197522774
F68357.359993214559
tp542
a(F145702.90839455853
F183060.33350620006
F68207.359993214573
tp543
a(F143744.09556468239
F183517.79210477133
F68207.359993214573
tp544
a(F146676.65021157521
F95443.483970023241
F68881.359993214573
tp545
a(F72127.483951037822
F168934.17898174556
F72817.359993214588
tp546
a(F73581.912811776856
F166310.31986032732
F72817.359993214588
tp547
a(F73030.902396279038
F166004.88979957209
F73217.359993214573
tp548
a(F71576.473535540033
F168628.7489209903
F73217.359993214573
tp549
a(F84872.826720508718
F163272.82117396581
F71617.359993214573
tp550
a(F86653.740227409842
F168317.68973121259
F71617.359993214573
tp551
a(F87282.957738406636
F168286.29986254472
F71217.359993214588
tp552
a(F85371.458924652135
F162887.35579307348
F71217.359993214588
tp553
a(F115298.14947395782
F165069.70242066696
F69217.359993214573
tp554
a(F118048.14947395782
F169832.84214148138
F68867.359993214573
tp555
a(F118593.74547834203
F169517.84214148138
F68667.359993214573
tp556
a(F115843.745478342
F164754.70242066696
F68667.359993214573
tp557
a(F94787.924452379913
F163884.682556704
F70817.359993214573
tp558
a(F94368.578825762335
F169212.97394372607
F70817.359993214573
tp559
a(F94987.003951334351
F169092.76427663871
F70417.359993214573
tp560
a(F95379.930803475
F164100.15524699923
F70417.359993214573
tp561
a(F90902.370394233978
F162827.65959497407
F71217.359993214588
tp562
a(F91494.376745329108
F163043.13228526921
F70817.359993214573
tp563
a(F92875.395944383985
F159248.81322003267
F70817.359993214573
tp564
a(F92283.389593288855
F159033.34052973747
F71217.359993214588
tp565
a(F62589.235002302834
F150732.46324277518
F74017.359993214573
tp566
a(F60864.93328056555
F164775.77381095753
F74017.359993214573
tp567
a(F61490.237356099591
F164852.55149730277
F73617.359993214573
tp568
a(F63214.539077836853
F150809.24092912042
F74307.359993214573
tp569
a(F62448.043679452574
F146939.07899436931
F74157.359993214573
tp570
a(F60807.390842069537
F144028.00770248639
F74157.359993214573
tp571
a(F60258.554240958656
F144337.326931247
F74017.359993214573
tp572
a(F61899.207078341708
F147248.39822312992
F74017.359993214573
tp573
a(F65557.2018142655
F149437.13213344428
F74307.359993214573
tp574
a(F66396.378348844271
F152850.70107990105
F74307.359993214573
tp575
a(F66658.058130059027
F157843.84875367384
F73617.359993214573
tp576
a(F67287.1947369544
F157810.8771012408
F73617.359993214573
tp577
a(F67025.514955739665
F152817.72942746797
F73617.359993214573
tp578
a(F66128.275826667625
F149171.07015811454
F73617.359993214573
tp579
a(F64630.222737034557
F146005.78015701874
F73617.359993214573
tp580
a(F64060.777811260981
F146275.28428780477
F74157.359993214573
tp581
a(F148186.13008732768
F146621.81298654535
F68357.359993214573
tp582
a(F146391.05335619207
F171237.24169075815
F68207.359993214573
tp583
a(F134593.93599118438
F181039.96567800245
F68207.359993214573
tp584
a(F61267.3487242602
F181039.96567800269
F73287.359993214588
tp585
a(F58497.236546508422
F170701.76628796809
F73977.359993214588
tp586
a(F58205.129637078389
F165925.8605352171
F73977.359993214588
tp587
a(F59673.618779444943
F144478.83730534388
F74157.359993214573
tp588
a(F60823.710462253235
F142802.84291990774
F74157.359993214573
tp589
a(F63018.886318441553
F141779.21560717071
F74157.359993214573
tp590
a(F77689.128207850415
F167177.88823393872
F72907.359993214588
tp591
a(F84764.695812078178
F164620.37305083129
F72807.359993214573
tp592
a(F84764.695812078164
F147915.63357443569
F71907.359993214588
tp593
a(F86608.572569416952
F147379.09651287965
F71907.359993214588
tp594
a(F98077.964731558182
F165418.39735509842
F71067.359993214573
tp595
a(F101417.29507837817
F166497.29177340609
F70907.359993214573
tp596
a(F103728.38065620104
F165567.18591123293
F70907.359993214573
tp597
a(F143177.04605350504
F146946.33032266755
F68207.359993214573
tp598
a(F137007.10077449403
F165798.39479153178
F67957.359993214573
tp599
a(F118158.9013904302
F173574.64544937419
F70287.359993214573
tp600
a(F110136.96549027017
F169675.30875035163
F70677.359993214559
tp601
a(F98427.278038759934
F173802.43084135585
F71177.359993214573
tp602
a(F80557.077844143249
F172984.80136780042
F71987.359993214573
tp603
a(F68873.0592048837
F172958.43196654867
F72467.359993214573
tp604
a(F61958.106357308134
F183617.90826025361
F73287.359993214588
tp605
a(F50935.387941402696
F183617.90826025367
F74017.359993214573
tp606
a(F50935.387941402689
F180538.27329389859
F73287.359993214559
tp607
a(F52314.812826947738
F180538.27329389859
F73287.359993214588
tp608
a(F54246.664479525847
F178020.63520369356
F73457.3599932146
tp609
a(F52701.681588774016
F172254.6805585832
F74957.359993214573
tp610
a(F52231.437530598138
F165330.81006458998
F74017.359993214573
tp611
a(F53064.84672978751
F152787.95994406092
F74467.359993214573
tp612
a(F53750.366886272554
F142470.84731108844
F74277.359993214573
tp613
a(F53893.829871855509
F139324.92709002958
F74277.359993214573
tp614
a(F52874.312964156125
F132496.16549032871
F74017.359993214573
tp615
a(F50392.348818236
F127370.49018040669
F74017.359993214573
tp616
a(F50228.593063634624
F120758.10653077888
F74017.359993214573
tp617
a(F53388.426923859573
F113314.00445555786
F74017.359993214573
tp618
a(F57036.906214239032
F110359.52418076598
F74017.359993214573
tp619
a(F66723.6711542177
F108476.60781718844
F74017.359993214573
tp620
a(F69045.035105293122
F106322.9114611899
F74017.359993214573
tp621
a(F78508.875560284592
F106322.91146118991
F74017.359993214573
tp622
a(F78508.875560284592
F116475.56515770414
F74157.359993214559
tp623
a(F77937.7819732875
F116475.56515770414
F74157.359993214559
tp624
a(F73726.039203246139
F118780.89953113667
F74017.359993214573
tp625
a(F70492.440451365168
F123834.99085518633
F74157.359993214559
tp626
a(F66898.94074543778
F129451.60475205215
F74157.359993214559
tp627
a(F65389.927994560006
F131810.18070327531
F74157.359993214559
tp628
a(F64364.841996793009
F138050.96004973623
F74017.359993214573
tp629
a(F65356.18237548969
F140891.76528351038
F74107.359993214559
tp630
a(F63018.886318433804
F141779.21560717432
F74157.359992809637
tp631
a(F60823.710462253621
F142802.84291990759
F74157.359993214573
tp632
a(F59673.618779444929
F144478.83730534388
F74157.359993214573
tp633
a(F58205.1296370784
F165925.8605352171
F74017.359993214573
tp634
a(F58497.236546508444
F170701.76628796812
F74017.359993214573
tp635
a(F24992.893899333456
F133913.62232767566
F76807.359993214573
tp636
a(F16423.973562839328
F113707.07338543481
F76677.359993214573
tp637
a(F15828.773601277277
F110778.97905136917
F76677.359993214573
tp638
a(F15828.773601277271
F101407.99326321503
F76947.359993214588
tp639
a(F19974.494718830883
F94699.877791730265
F77217.359993214573
tp640
a(F42579.490017646247
F83396.6349225623
F79017.359993214573
tp641
a(F42755.936865253483
F83727.3541768323
F78817.359993214573
tp642
a(F37317.270758190854
F86621.459775548981
F78817.311207190767
tp643
a(F37624.636316984819
F87199.06781024969
F78217.359993214588
tp644
a(F28973.277201573826
F91802.76039948687
F78217.359993214573
tp645
a(F25276.853728682305
F95740.698220168561
F78017.359993214559
tp646
a(F25859.065957992407
F95981.38249477277
F77617.359993214588
tp647
a(F29246.77069391984
F92370.3147636673
F77617.359993214588
tp648
a(F34667.275959463492
F89478.58348275075
F77617.359993214588
tp649
a(F34963.972742828511
F90034.690549946448
F77017.359993214573
tp650
a(F38680.376639825343
F88051.897762427063
F77017.359993214573
tp651
a(F36007.668017356831
F90309.849107034024
F77017.359993214573
tp652
a(F33511.119598344667
F93082.547025065986
F76717.359993214588
tp653
a(F33979.300838395437
F93504.099307072043
F76417.359993214573
tp654
a(F36482.065100415188
F90724.497996005637
F76417.359993214573
tp655
a(F39827.342990955149
F88154.019737913579
F76417.359993214573
tp656
a(F41892.526634611269
F87052.19352444596
F76417.359993214573
tp657
a(F32636.414301064
F99150.448784169319
F76417.359993214573
tp658
a(F28976.697682613554
F112808.69714553071
F75817.359993214573
tp659
a(F29585.230953175669
F112971.75314394527
F75817.359993214573
tp660
a(F33243.8679799402
F99317.533873607172
F75817.359993214573
tp661
a(F43975.208708721271
F86655.0881720866
F75817.359993214573
tp662
a(F48843.600380568263
F84057.681603452336
F75817.359993214573
tp663
a(F44650.498130383276
F86718.955966498659
F75817.359993214573
tp664
a(F40175.601900254573
F94218.0653962639
F75817.359993214573
tp665
a(F40801.460928209606
F94290.179729979049
F75217.359993214573
tp666
a(F44999.9668497003
F87243.331250822434
F75217.359993214573
tp667
a(F50290.644333544682
F83885.448826114036
F75217.359993214573
tp668
a(F51490.095491532222
F83517.501977102933
F75217.359993214573
tp669
a(F49799.282448756334
F84365.131526008976
F75217.359993214573
tp670
a(F44178.371995727473
F89986.041979037866
F75217.359993214573
tp671
a(F42720.956667893683
F93738.957355270235
F75217.359993214573
tp672
a(F43350.949478895185
F93741.967020769385
F74617.359993214573
tp673
a(F44635.168295964679
F90420.2002230957
F74617.359993214573
tp674
a(F50244.759720903858
F84810.608798156492
F74617.359993214573
tp675
a(F51954.197954470968
F84116.689990163883
F74617.359993214573
tp676
a(F49542.5120661348
F86109.74740619713
F74617.359993214573
tp677
a(F44615.557987307511
F100418.66103573667
F74617.359993214573
tp678
a(F45225.577234095348
F100582.1152002809
F74017.359993214573
tp679
a(F50138.18876876212
F86314.855343505827
F73957.359993214588
tp680
a(F48945.495303559524
F97662.575653613152
F73957.359993214588
tp681
a(F49231.832676109007
F100773.35568252076
F73957.359993214588
tp682
a(F53104.1889743969
F113831.02174595302
F73957.359993214588
tp683
a(F52579.158469629147
F113608.1595189373
F74017.359993214573
tp684
a(F49648.675005959572
F120511.94591983067
F74017.359993214573
tp685
a(F49825.326526235869
F127645.05478186673
F74017.359993214573
tp686
a(F52860.704101725081
F133913.62232767558
F74277.359993214573
tp687
a(F38743.734068145248
F133913.62232767564
F74807.359993214588
tp688
a(F35183.1594999366
F133913.62232767564
F74917.359993214573
tp689
a(F37155.342203088061
F118035.63456519807
F74467.359993214573
tp690
a(F36530.146434940507
F117957.97987126149
F74917.359993214573
tp691
a(F34548.318350617876
F133913.62232767564
F74917.359993214573
tp692
a(F32878.381432470611
F133913.62232767566
F75217.359993214573
tp693
a(F31160.714122647558
F115033.53945099833
F74917.359993214573
tp694
a(F30533.305287598148
F115090.6196901529
F75367.359993214573
tp695
a(F32245.779566147292
F133913.62232767566
F75367.359993214573
tp696
a(F30838.769441875607
F133913.62232767566
F75667.359993214573
tp697
a(F29474.523097398043
F118918.23649210666
F75367.359993214573
tp698
a(F28847.11426234863
F118975.31673126121
F75817.359993214573
tp699
a(F30206.167575552285
F133913.62232767566
F75817.359993214573
tp700
a(F29111.13775749144
F133913.62232767566
F76117.359993214573
tp701
a(F27000.685530042923
F119094.43450895454
F75817.359993214573
tp702
a(F22779.51521317317
F111382.29313831053
F75817.359993214573
tp703
a(F22404.062909224151
F111888.19388693557
F76267.359993214588
tp704
a(F26373.720892717305
F119160.38330635244
F76267.359993214588
tp705
a(F28474.78112189515
F133913.62232767566
F76267.359993214588
tp706
a(F26872.372509811383
F133913.62232767566
F76567.359993214573
tp707
a(F25246.695694158792
F127846.51385497348
F76267.359993214588
tp708
a(F22691.009383287943
F122749.6306531329
F76267.359993214588
tp709
a(F22188.794144647145
F123129.99870394288
F76717.359993214588
tp710
a(F24639.77363411339
F128015.58297289809
F76717.359993214588
tp711
a(F26220.148516153033
F133913.62232767566
F76717.359993214588
tp712
a(F40825.741836005494
F132135.18130622225
F74467.359993214573
tp713
a(F41375.290121622747
F131827.12825596117
F74017.359993214573
tp714
a(F39571.845490896761
F123847.81101733416
F74017.359993214573
tp715
a(F40579.650820219424
F108681.25806624506
F74017.359993214573
tp716
a(F39951.037112378224
F108639.48718746392
F74467.359993214573
tp717
a(F38943.231783055577
F123806.04013855301
F74467.359993214573
tp718
a(F32770.502141901365
F88301.452233720018
F78138.097574580432
tp719
a(F37805.539627950304
F133913.62232767564
F74857.359993214573
tp720
a(F42028.413771774351
F133913.62232767564
F74757.359993214573
tp721
a(F37312.00638661033
F86634.391418960033
F78817.359993214588
tp722
a(F53893.503351547428
F139344.00674485316
F74277.359993214573
tp723
a(F53750.366886272619
F142470.84731108759
F74277.359993214573
tp724
a(F53064.84672978751
F152787.95994406092
F74277.359993214573
tp725
a(F52231.437530598138
F165330.81006458987
F73977.359993214588
tp726
a(F52701.68158877403
F172254.68055858326
F74957.359993214573
tp727
a(F54246.664479525862
F178020.63520369356
F73457.3599932146
tp728
a(F52314.812826947724
F180538.27329389859
F73287.359993214588
tp729
a(F50935.387941402696
F180538.27329389859
F73287.359993214588
tp730
a(F50935.387941402689
F173569.37360794717
F74757.359993214573
tp731
a(F45606.635172126094
F173569.3736079472
F74967.359993214573
tp732
a(F45606.635172126094
F164425.17588654906
F74967.359993214573
tp733
a(F42606.635172126087
F164425.17588654906
F74967.359993214573
tp734
a(F42606.635172126043
F139344.00674485284
F74977.359993214573
tp735
a(F51051.976151244104
F156397.31483974218
F74917.359993214573
tp736
a(F51677.280226778137
F156320.5371533969
F74467.359993214573
tp737
a(F50730.911945160682
F148612.98601945804
F74467.359993214573
tp738
a(F49819.620265709193
F146429.53584625162
F74467.359993214573
tp739
a(F46321.696842713936
F141554.1537012966
F74467.359993214573
tp740
a(F45809.815979181396
F141921.41107909751
F74917.359993214573
tp741
a(F49307.263682797406
F146796.13016958069
F74917.359993214573
tp742
a(F50107.538944348336
F148705.49104731521
F74917.359993214573
tp743
a(F52469.95284434771
F84716.4518695686
F73957.359993214588
tp744
a(F54968.404951508259
F84716.4518695686
F73957.359993214588
tp745
a(F54968.404951508259
F86688.903667071019
F73957.359993214588
tp746
a(F54610.001741869222
F86688.903667071019
F73957.359993214588
tp747
a(F51626.436055764425
F89375.318277268059
F73957.359993214588
tp748
a(F50773.091301398381
F97494.351275405686
F73957.359993214588
tp749
a(F51059.428673947863
F100605.13130431334
F73957.359993214588
tp750
a(F53112.76629411988
F107529.02851169153
F73957.359993214588
tp751
a(F56886.0136781419
F110391.27690014031
F73957.359993214588
tp752
a(F53388.426923859559
F113314.00445555792
F73957.359993214588
tp753
a(F53130.83156062934
F113920.8611014491
F73957.359993214588
tp754
a(F49231.832676109007
F100773.35568252076
F73957.359993214588
tp755
a(F48945.495303559524
F97662.575653613108
F73957.359993214588
tp756
a(F50138.18876876212
F86314.8553435058
F73957.359993214588
tp757
a(F53893.497991060365
F139344.00674485278
F74277.359993214573
tp758
a(F42031.400267456818
F139344.00674485284
F74977.359993214573
tp759
a(F42031.400267456876
F133913.62232767564
F74757.359993214573
tp760
a(F53279.206049986511
F133913.62232767575
F74277.359993214573
tp761
a(F153302.72807631773
F45420.592051724663
F68217.359993214573
tp762
a(F149022.49852066408
F49822.772347115744
F68217.359993214573
tp763
a(F149022.49852066403
F45420.592051724678
F68217.359993214573
tp764
a(F105424.43920575813
F47414.761618547622
F68967.359993214588
tp765
a(F109351.16343642071
F45332.463682490707
F68977.359993214588
tp766
a(F111775.23261766235
F45332.463682490707
F68977.359993214588
tp767
a(F114333.39644154195
F50393.02874194795
F68837.359993214588
tp768
a(F112539.65311814407
F51315.663742815006
F68807.3599932146
tp769
a(F111488.0768029592
F49271.238815694647
F68807.3599932146
tp770
a(F107469.6297323663
F51338.178866759183
F68807.3599932146
tp771
a(F106983.34843230466
F51917.991766751824
F67667.3599932146
tp772
a(F109412.38778550141
F50668.584063593138
F67667.3599932146
tp773
a(F110464.61444625485
F52714.273361803149
F67667.3599932146
tp774
a(F109397.50258071416
F53263.156105585753
F67627.359993214588
tp775
a(F78458.875560284592
F116475.56515770414
F74157.359993214573
tp776
a(F78458.875560284621
F138994.91146118951
F74157.359993214573
tp777
a(F65368.963167805872
F138994.91146118951
F74157.359993214573
tp778
a(F64989.977666888684
F137871.19105250089
F74157.359993214573
tp779
a(F65937.454554665383
F132160.48723472908
F74157.359993214573
tp780
a(F65389.927994560006
F131810.18070327534
F74157.359993214573
tp781
a(F66898.94074543778
F129451.60475205215
F74157.359993214573
tp782
a(F70492.440451365168
F123834.99085518633
F74157.359993214573
tp783
a(F71039.967011470566
F124185.29738664012
F74157.359993214573
tp784
a(F74273.5657633515
F119131.20606259044
F74157.359993214573
tp785
a(F77937.7819732875
F117125.56515770416
F74157.359993214573
tp786
a(F77937.781973287478
F116475.56515770414
F74157.359993214573
tp787
a(F54981.1049515082
F106335.64015739942
F73957.359993214588
tp788
a(F69041.524856286778
F106335.64015739939
F73957.359993214588
tp789
a(F66723.6711542177
F108476.60781718846
F73957.359993214588
tp790
a(F56874.546858703543
F110391.08364248635
F73957.359993214588
tp791
a(F53112.766294119865
F107529.02851169152
F73957.359993214588
tp792
a(F51059.428673947848
F100605.13130431327
F73957.359993214588
tp793
a(F50773.091301398388
F97494.351275405672
F73957.359993214588
tp794
a(F51626.436055764425
F89375.318277268045
F73957.359993214588
tp795
a(F54610.001741869244
F86688.903667071019
F73957.359993214588
tp796
a(F54981.104951508169
F86688.903667071019
F73957.359993214588
tp797
a(F42606.635172126043
F139344.00674485284
F74977.359993214573
tp798
a(F42606.635172126094
F168441.74901689493
F74967.359993214573
tp799
a(F39265.545550994415
F168441.74901689493
F74997.359993214573
tp800
a(F39265.545550994415
F167829.7490168949
F74997.359993214573
tp801
a(F41994.55552397955
F167829.7490168949
F74967.359993214573
tp802
a(F41994.555523979507
F139344.00674485284
F74977.359993214573
tp803
a(F42606.635172126094
F164425.17588654906
F74967.359993214573
tp804
a(F45606.635172126094
F164425.17588654906
F74967.359993214573
tp805
a(F45606.635172126094
F173569.3736079472
F74967.359993214573
tp806
a(F39265.54555099443
F173569.3736079472
F74997.359993214573
tp807
a(F39265.545550994415
F168441.74901689493
F74997.359993214573
tp808
a(F42606.635172126094
F168441.74901689493
F74967.359993214573
tp809
a(F78036.112577936728
F167592.52240271238
F72907.359993214588
tp810
a(F63018.886318441771
F141779.2156071713
F74157.359993214573
tp811
a(F65356.182375489843
F140891.76528351085
F74107.359993214559
tp812
a(F75769.5246728227
F160591.38485906032
F72857.359993214573
tp813
a(F81957.370473489093
F158949.84513122874
F72857.359993214573
tp814
a(F84222.430293015655
F144648.82026486314
F72107.359993214573
tp815
a(F89382.003228130765
F143817.2108423773
F72007.359993214573
tp816
a(F98359.338501957187
F161201.43756397141
F71117.359993214573
tp817
a(F103092.02815343351
F162959.36247833844
F70867.359993214573
tp818
a(F144371.08319960005
F143475.89390329047
F68207.359993214573
tp819
a(F147454.91851131566
F137483.01814581174
F68407.359993214588
tp820
a(F148186.13008732765
F146621.81298654529
F68207.359993214573
tp821
a(F143177.04605350495
F146946.33032266758
F68207.359993214573
tp822
a(F103001.11898540116
F165861.70247481411
F70907.359993214573
tp823
a(F95897.459354867664
F162916.19901351081
F71067.359993214573
tp824
a(F89609.264540176548
F149705.84007615037
F71887.359993214573
tp825
a(F85856.847860092836
F150310.6469288673
F71897.359993214559
tp826
a(F83237.874063251991
F166846.19670556564
F72707.359993214573
tp827
as.