(dp0
Vcurves
p1
(lp2
(F-1.9793060763184409
F10.580448751545283
F0.0
tp3
a(F119.36211711313103
F10.580448751545283
F0.0
tp4
a(F119.36211711313103
F71.961351777899068
F0.0
tp5
a(F-1.9793060763184409
F71.961351777899068
F0.0
tp6
asVpoints
p7
(lp8
(F-30.282432414429593
F-64.784096658229828
F2.5710911452770233
tp9
a(F-30.282431023292816
F-63.630764275789261
F7.4893916696310043
tp10
a(F-30.282423730561277
F-62.410538047552109
F12.390584997832775
tp11
a(F-30.282398560109868
F-61.115275919437408
F17.271069914102554
tp12
a(F-30.282331180016627
F-59.735294967889786
F22.126188591122627
tp13
a(F-30.282176872598939
F-58.259046643972397
F26.949843272566795
tp14
a(F-30.281851508363616
F-56.65562030673027
F31.780790001153946
tp15
a(F-30.281238659867086
F-54.957071900367737
F36.476095885038376
tp16
a(F-30.280095651280135
F-53.110642850399017
F41.100449129939079
tp17
a(F-30.277984173502773
F-51.034722745418549
F45.768962696194649
tp18
a(F-30.274213462136686
F-48.736324727535248
F50.328275412321091
tp19
a(F-30.267557935789227
F-46.167477935552597
F54.731824398040771
tp20
a(F-30.255911596119404
F-43.266386359930038
F58.907321870326996
tp21
a(F-30.235823418945074
F-39.955910444259644
F62.739698648452759
tp22
a(F-30.202571287751198
F-36.150652557611465
F66.044641733169556
tp23
a(F-30.152365684509277
F-31.714977741241455
F68.565816849470139
tp24
a(F-30.094242170453072
F-26.794640507549047
F69.920438438653946
tp25
a(F-30.047416403889656
F-21.750447012484074
F69.886640638113022
tp26
a(F-30.019181460142136
F-16.891732066869736
F68.650397300720215
tp27
a(F-30.004867047071457
F-12.55415067076683
F66.653189152479172
tp28
a(F-29.997800529003143
F-8.4927936941385269
F64.068126231431961
tp29
a(F-29.994729816913605
F-4.4868038594722748
F60.96951749920845
tp30
a(F-29.994407624006271
F-0.68715390563011169
F57.593149065971375
tp31
a(F-29.995890825986862
F2.9075790345668793
F54.080330580472946
tp32
a(F-29.998766332864761
F6.3907175362110138
F50.443728655576706
tp33
a(F-30.002878338098526
F9.8716782331466675
F46.648849904537201
tp34
a(F-30.007999956607819
F13.268195301294327
F42.852146357297897
tp35
a(F-30.014076113700867
F16.572902053594589
F39.122729122638702
tp36
a(F-30.021229356527328
F19.873887985944748
F35.415093123912811
tp37
a(F-30.0295789539814
F23.196675628423691
F31.749309927225113
tp38
a(F-30.039302140474319
F26.566050469875336
F28.146101027727127
tp39
a(F-30.050636038184166
F30.006754904985428
F24.628271043300629
tp40
a(F-30.064166128635406
F33.615668773651123
F21.157889902591705
tp41
a(F-30.080021634697914
F37.349070221185684
F17.83359956741333
tp42
a(F-30.097992688417435
F41.118989169597626
F14.786795258522034
tp43
a(F-30.118733823299408
F45.061681836843491
F11.957519352436066
tp44
a(F-30.14240451157093
F49.234056755900383
F9.3642675578594208
tp45
a(F-30.168063342571259
F53.596405982971191
F7.0914233028888702
tp46
a(F-30.194236822426319
F58.139987707138062
F5.1784398257732391
tp47
a(F-30.21924065053463
F62.927239954471588
F3.6255660057067871
tp48
a(F-30.240790102630854
F67.873867079615593
F2.4469926059246063
tp49
a(F-30.25710678845644
F72.8260493054986
F1.6340015232563019
tp50
a(F-30.268376333639026
F77.785191144794226
F1.1081578135490417
tp51
a(F-30.275440354365855
F82.751366425305605
F0.79396158456802368
tp52
a(F-30.279403823893517
F87.723719198256731
F0.62415298074483871
tp53
a(F-30.28134180419147
F92.700922284275293
F0.54369416087865829
tp54
a(F-30.282130087172845
F97.68147620128002
F0.51186130754649639
tp55
a(F-30.282376339771872
F102.67490020312835
F0.50216135149821639
tp56
a(F-30.282427367871605
F107.69065805106584
F0.50019577500643209
tp57
a(F-30.282432467057689
F112.71720189256013
F0.5000033157789403
tp58
a(F-26.173669417771634
F-64.78409618139267
F2.5710462033748627
tp59
a(F-26.173663532833416
F-63.630763411521912
F7.4892203509807587
tp60
a(F-26.173652292387487
F-62.410535395145416
F12.390119522809982
tp61
a(F-26.173625834013365
F-61.11526820063591
F17.26984877884388
tp62
a(F-26.173564282049483
F-59.735275387763977
F22.12321475148201
tp63
a(F-26.1734309480089
F-58.259002029895782
F26.943260252475739
tp64
a(F-26.17315671936376
F-56.655524998903275
F31.767334491014481
tp65
a(F-26.172645945684053
F-54.956881135702133
F36.450980216264725
tp66
a(F-26.171698240563273
F-53.110272198915482
F41.055784106254578
tp67
a(F-26.169948658440262
F-51.034003883600235
F45.692261025309563
tp68
a(F-26.166816187556833
F-48.734940975904465
F50.201396241784096
tp69
a(F-26.161257737316191
F-46.164813220500946
F54.528209984302521
tp70
a(F-26.15145543217659
F-43.261231422424316
F58.588718831539154
tp71
a(F-26.134397234767675
F-39.94594544172287
F62.252090930938721
tp72
a(F-26.105999521911144
F-36.131958305835724
F65.314493089914322
tp73
a(F-26.063416361808777
F-31.683253601193428
F67.494027405977249
tp74
a(F-26.015388041734695
F-26.751745838671923
F68.414094209671021
tp75
a(F-25.977643758058548
F-21.705268941819668
F67.902564525604248
tp76
a(F-25.954483807086945
F-16.850218504667282
F66.20790883898735
tp77
a(F-25.941787615418434
F-12.517293050885201
F63.827659159898758
tp78
a(F-25.934553325176239
F-8.4602712392807007
F60.928735285997391
tp79
a(F-25.930391654372215
F-4.4582604169845581
F57.575196951627731
tp80
a(F-25.928565695881844
F-0.66214919090270996
F54.01838344335556
tp81
a(F-25.928415179252625
F2.9293781816959381
F50.395558685064316
tp82
a(F-25.929626360535622
F6.4094761312007904
F46.712385416030884
tp83
a(F-25.93206699192524
F9.8874183297157288
F42.929203391075134
tp84
a(F-25.935592889785767
F13.280972123146057
F39.197416335344315
tp85
a(F-25.940174385905266
F16.582742244005203
F35.579523622989655
tp86
a(F-25.945907205343246
F19.88071882724762
F32.02558422088623
tp87
a(F-25.95290669798851
F23.200380772352219
F28.551244765520096
tp88
a(F-25.961339935660362
F26.566476941108704
F25.172818839550018
tp89
a(F-25.971424072980881
F30.003726869821548
F21.908450335264206
tp90
a(F-25.98368239402771
F33.608942717313766
F18.720882415771484
tp91
a(F-25.998199433088303
F37.338535994291306
F15.697174251079559
tp92
a(F-26.014699786901474
F41.104814380407333
F12.952440112829208
tp93
a(F-26.033649519085884
F45.044223144650459
F10.42733907699585
tp94
a(F-26.055006839334965
F49.214116036891937
F8.1336217522621155
tp95
a(F-26.0777303352952
F53.575386807322502
F6.1411146223545074
tp96
a(F-26.100408405065536
F58.119687363505363
F4.4786478281021118
tp97
a(F-26.121614757925272
F62.90945041924715
F3.1408729553222656
tp98
a(F-26.139571338891983
F67.859788849949837
F2.1342162787914276
tp99
a(F-26.153006130829453
F72.815921731293201
F1.4457471370697021
tp100
a(F-26.162222694605589
F77.778574466705322
F1.0040802359580994
tp101
a(F-26.167981053236872
F82.747478557750583
F0.74222211539745331
tp102
a(F-26.171207667561248
F87.721710500307381
F0.60172931849956512
tp103
a(F-26.172784637717996
F92.700047185178846
F0.53561341390013695
tp104
a(F-26.173425968678202
F97.68117823463399
F0.50962026510387659
tp105
a(F-26.173626257546857
F102.67483205001918
F0.50174560467712581
tp106
a(F-26.173667684865904
F107.69065070219585
F0.50015808313037269
tp107
a(F-26.173671716201991
F112.71720181773588
F0.50000293966922982
tp108
a(F-21.761913433562768
F-64.784092754125595
F2.5707082524895668
tp109
a(F-21.761879979691003
F-63.630759239196777
F7.4881499335169792
tp110
a(F-21.761838920217997
F-62.410529255867004
F12.388175912201405
tp111
a(F-21.761781779205194
F-61.115257203578949
F17.266631051898003
tp112
a(F-21.761691894600517
F-59.735253512859344
F22.117862477898598
tp113
a(F-21.761539005819941
F-58.25895756483078
F26.934177532792091
tp114
a(F-21.761265952198301
F-56.655435353517532
F31.751687064766884
tp115
a(F-21.760795803158544
F-54.956706464290619
F36.424632668495178
tp116
a(F-21.75996395945549
F-53.109936743974686
F41.011919885873795
tp117
a(F-21.758468695916235
F-51.033354520797729
F45.620068401098251
tp118
a(F-21.75583134777844
F-48.733684122562408
F50.085174173116684
tp119
a(F-21.751182706095278
F-46.162363231182098
F54.345002025365829
tp120
a(F-21.74299412406981
F-43.256405860185623
F58.305421978235245
tp121
a(F-21.72872444242239
F-39.936419069766998
F61.821923017501831
tp122
a(F-21.705020096153021
F-36.113822549581528
F64.673391819000244
tp123
a(F-21.670071952044964
F-31.652810752391815
F66.554959625005722
tp124
a(F-21.632085874676704
F-26.712492955848575
F67.095896184444427
tp125
a(F-21.603088811039925
F-21.666177198290825
F66.169480174779892
tp126
a(F-21.584910333156586
F-16.815581828355789
F64.078251481056213
tp127
a(F-21.57414747774601
F-12.487016975879669
F61.367181599140167
tp128
a(F-21.567263320088387
F-8.4336625635623932
F58.197460800409317
tp129
a(F-21.562597587704659
F-4.4348592162132263
F54.624191641807556
tp130
a(F-21.559805944561958
F-0.64156106114387512
F50.91213920712471
tp131
a(F-21.558474317193031
F2.9473936259746552
F47.195042848587036
tp132
a(F-21.558387324213982
F6.4249925315380096
F43.472507059574127
tp133
a(F-21.559447750449181
F9.9003767073154449
F39.700416684150696
tp134
a(F-21.561591312289238
F13.291336268186569
F36.02576944231987
tp135
a(F-21.564817324280739
F16.590454399585724
F32.505315661430359
tp136
a(F-21.569203868508339
F19.885639429092407
F29.085289090871811
tp137
a(F-21.57486280798912
F23.202339500188828
F25.77749702334404
tp138
a(F-21.581948101520538
F26.56528514623642
F22.594395726919174
tp139
a(F-21.590650007128716
F29.999199330806732
F19.550086170434952
tp140
a(F-21.60141509771347
F33.600868284702301
F16.607859790325165
tp141
a(F-21.614277586340904
F37.326887339353561
F13.844726115465164
tp142
a(F-21.628909274935722
F41.089887022972107
F11.361706078052521
tp143
a(F-21.645603068172932
F45.026542216539383
F9.1000440120697021
tp144
a(F-21.664173655211926
F49.194633394479752
F7.0657540559768677
tp145
a(F-21.683586694300175
F53.555523380637169
F5.3161714375019073
tp146
a(F-21.702591374516487
F58.101056903600693
F3.8709857761859894
tp147
a(F-21.720048978924751
F62.893503591418266
F2.7199512720108032
tp148
a(F-21.734624547883868
F67.847372025251389
F1.8626362979412079
tp149
a(F-21.745429456233978
F72.807072795927525
F1.2823481559753418
tp150
a(F-21.752803856506944
F77.772820305079222
F0.9137912392616272
tp151
a(F-21.757399777881801
F82.744104367680848
F0.69736985862255096
tp152
a(F-21.759972147177905
F87.71996861603111
F0.5823151022195816
tp153
a(F-21.761228482122533
F92.699288735399023
F0.52863851189613342
tp154
a(F-21.7617387236387
F97.680920369806699
F0.50770568195730448
tp155
a(F-21.761897143998794
F102.67477361070632
F0.50140809663571417
tp156
a(F-21.761928572893424
F107.6906451838895
F0.50014080584514886
tp157
a(F-21.761929719367458
F112.71720285829326
F0.50000817010732135
tp158
a(F-17.154736292948655
F-64.784078866243362
F2.569349892437458
tp159
a(F-17.15462164276687
F-63.630743503570557
F7.4839373379945755
tp160
a(F-17.154490766843082
F-62.410510390996933
F12.381001174449921
tp161
a(F-17.154335105238715
F-61.115232467651367
F17.256172895431519
tp162
a(F-17.154139153775759
F-59.735217481851578
F22.103428363800049
tp163
a(F-17.153876020514872
F-58.258900076150894
F26.91445828974247
tp164
a(F-17.15349485212937
F-56.655336648225784
F31.724354758858681
tp165
a(F-17.152934478712268
F-54.956532120704651
F36.386341318488121
tp166
a(F-17.152054863283411
F-53.109621047973633
F40.957089886069298
tp167
a(F-17.150597905740142
F-51.032763689756393
F45.539769202470779
tp168
a(F-17.148170449770987
F-48.732558369636536
F49.966534689068794
tp169
a(F-17.144050111062825
F-46.160175114870071
F54.169178783893585
tp170
a(F-17.136968687176704
F-43.252069145441055
F58.045257806777954
tp171
a(F-17.124842686578631
F-39.927768260240555
F61.438946008682251
tp172
a(F-17.105079874396324
F-36.097295731306076
F64.11458033323288
tp173
a(F-17.076923906803131
F-31.625715762376785
F65.747850328683853
tp174
a(F-17.047918424010277
F-26.679499484598637
F65.973843365907669
tp175
a(F-17.026673093438148
F-21.635206192731857
F64.705093622207642
tp176
a(F-17.013198629021645
F-16.789167255163193
F62.288039833307266
tp177
a(F-17.004729241132736
F-12.464347839355469
F59.305785000324249
tp178
a(F-16.998851448297501
F-8.4138883352279663
F55.914583057165146
tp179
a(F-16.994461908936501
F-4.4175001382827759
F52.162144184112549
tp180
a(F-16.991465047001839
F-0.62628334760665894
F48.324163556098938
tp181
a(F-16.989636391401291
F2.9607549607753754
F44.531408250331879
tp182
a(F-16.988851964473724
F6.4364495277404785
F40.778508454561234
tp183
a(F-16.989057809114456
F9.9098232686519623
F37.017676144838333
tp184
a(F-16.99025322496891
F13.298675239086151
F33.392213076353073
tp185
a(F-16.992466136813164
F16.595571607351303
F29.954070538282394
tp186
a(F-16.995768412947655
F19.888356178998947
F26.646366804838181
tp187
a(F-17.000269293785095
F23.202458620071411
F23.477704852819443
tp188
a(F-17.006108537316322
F26.562608271837234
F20.457349091768265
tp189
a(F-17.01344795525074
F29.993555396795273
F17.596033096313477
tp190
a(F-17.022654056549072
F33.592099130153656
F14.857512652873993
tp191
a(F-17.033717006444931
F37.31504562497139
F12.310460656881332
tp192
a(F-17.046282917261124
F41.075351759791374
F10.044261008501053
tp193
a(F-17.060510873794556
F45.009921506047249
F8.0007280111312866
tp194
a(F-17.076140441000462
F49.176891908049583
F6.1812188923358917
tp195
a(F-17.092226676642895
F53.537942320108414
F4.6328177750110626
tp196
a(F-17.107724383473396
F58.084957808256149
F3.3676760792732239
tp197
a(F-17.121760278940201
F62.879976347088814
F2.3714514970779419
tp198
a(F-17.133352546021342
F67.836969144642353
F1.6379583477973938
tp199
a(F-17.141885599121451
F72.799711432307959
F1.1473419964313507
tp200
a(F-17.14768602559343
F77.768050787970424
F0.83935448527336121
tp201
a(F-17.151292714523152
F82.741312730126083
F0.66054978966712952
tp202
a(F-17.153307614498772
F87.718529648613185
F0.56653425097465515
tp203
a(F-17.154288293793797
F92.698664280353114
F0.52312596887350082
tp204
a(F-17.154682100415812
F97.680710958840791
F0.50634569860994816
tp205
a(F-17.154797922507896
F102.67473036999581
F0.50130783091299236
tp206
a(F-17.154811506798069
F107.69064726766373
F0.50024648051476106
tp207
a(F-17.154798006535202
F112.71721232800792
F0.5000557703206141
tp208
a(F-12.320675272523658
F-64.784039109945297
F2.5654755085706711
tp209
a(F-12.320390614244388
F-63.630698919296265
F7.4719679951667786
tp210
a(F-12.320070669753477
F-62.410459220409393
F12.360872648656368
tp211
a(F-12.319704557186924
F-61.115171551704407
F17.227654576301575
tp212
a(F-12.31927489861846
F-59.735141277313232
F22.065992400050163
tp213
a(F-12.318753873929381
F-58.258798569440842
F26.867092803120613
tp214
a(F-12.318089087493718
F-56.655191510915756
F31.665180012583733
tp215
a(F-12.317231762921438
F-54.95631217956543
F36.312827154994011
tp216
a(F-12.316051095258445
F-53.109267830848694
F40.864831894636154
tp217
a(F-12.314304870087653
F-51.032158583402634
F45.421540632843971
tp218
a(F-12.311661960557103
F-48.731471747159958
F49.812115117907524
tp219
a(F-12.30750741623342
F-46.158139377832413
F53.963592678308487
tp220
a(F-12.300785591825843
F-43.248115032911301
F57.766925007104874
tp221
a(F-12.289835134521127
F-39.919967889785767
F61.057193219661713
tp222
a(F-12.272860325872898
F-36.082615032792091
F63.586938232183456
tp223
a(F-12.250251442193985
F-31.602564051747322
F65.016062051057816
tp224
a(F-12.228977099061012
F-26.653072081506252
F64.985829651355743
tp225
a(F-12.214613877236843
F-21.611841514706612
F63.441639423370361
tp226
a(F-12.205720901489258
F-16.770013988018036
F60.764223754405975
tp227
a(F-12.199945323169231
F-12.44827401638031
F57.566424667835236
tp228
a(F-12.195716574788094
F-8.4000480771064758
F54.000325202941895
tp229
a(F-12.192361235618591
F-4.4054513573646545
F50.10764217376709
tp230
a(F-12.189916655421257
F-0.6157507598400116
F46.172593265771866
tp231
a(F-12.18829882144928
F2.9698865711688995
F42.323392122983932
tp232
a(F-12.18746779859066
F6.4441626369953156
F38.550647228956223
tp233
a(F-12.187417894601822
F9.9159978032112122
F34.803659498691559
tp234
a(F-12.188188880681992
F13.303188771009445
F31.22255539894104
tp235
a(F-12.189831674098969
F16.598286747932434
F27.855340331792831
tp236
a(F-12.192421913146973
F19.889084845781326
F24.642659574747086
tp237
a(F-12.196065165102482
F23.201003313064575
F21.590509116649628
tp238
a(F-12.200886242091656
F26.558782309293747
F18.705545157194138
tp239
a(F-12.207019306719303
F29.987215131521225
F15.995752424001694
tp240
a(F-12.214756533503532
F33.583142518997192
F13.425296038389206
tp241
a(F-12.224055022001266
F37.303584665060043
F11.056028634309769
tp242
a(F-12.234562657773495
F41.061799734830856
F8.96784508228302
tp243
a(F-12.246349096298218
F44.99489563703537
F7.1031312644481659
tp244
a(F-12.259134959429502
F49.161283865571022
F5.4595339000225067
tp245
a(F-12.27210945636034
F53.522835776209831
F4.075821727514267
tp246
a(F-12.284438665956259
F58.071387775242329
F2.9580186605453491
tp247
a(F-12.295474242419004
F62.868737645447254
F2.0884326994419098
tp248
a(F-12.304507264867425
F67.828408893197775
F1.4561650454998016
tp249
a(F-12.311115933582187
F72.793688416481018
F1.0387872457504272
tp250
a(F-12.31558934552595
F77.764162173494697
F0.7802065908908844
tp251
a(F-12.318359838332981
F82.739044166170061
F0.63202711939811707
tp252
a(F-12.319897121225949
F87.717367648612708
F0.55507553368806839
tp253
a(F-12.320631743539707
F92.698169927345589
F0.5199114978313446
tp254
a(F-12.320907332599745
F97.680559548025485
F0.50634738523513079
tp255
a(F-12.320959858887363
F102.67472041210567
F0.50211372273042798
tp256
a(F-12.320922087041254
F107.6906819540236
F0.50092786352615803
tp257
a(F-12.320848895727977
F112.71726276587287
F0.5003092999686487
tp258
a(F-7.3388432305364404
F-64.783952444791794
F2.5570947155356407
tp259
a(F-7.338277758914046
F-63.63060188293457
F7.446102075278759
tp260
a(F-7.3376449389616027
F-62.410348862409592
F12.317513152956963
tp261
a(F-7.3369289052207023
F-61.115043312311172
F17.166678696870804
tp262
a(F-7.3361066950019449
F-59.734988123178482
F21.987052887678146
tp263
a(F-7.3351445291191339
F-58.258609086275101
F26.76949854195118
tp264
a(F-7.3339788364246488
F-56.654946178197861
F31.547473698854446
tp265
a(F-7.3325698277913034
F-54.955980241298676
F36.173390075564384
tp266
a(F-7.3307774337008595
F-53.108793675899506
F40.700460240244865
tp267
a(F-7.3283413890749216
F-51.031432837247849
F45.226603746414185
tp268
a(F-7.3249657722190022
F-48.730289399623871
F49.579039007425308
tp269
a(F-7.3200925085693598
F-46.156091332435608
F53.681274622678757
tp270
a(F-7.3128152433782816
F-43.244369596242905
F57.419306337833405
tp271
a(F-7.3018474504351616
F-39.912919133901596
F60.621417284011841
tp272
a(F-7.2862455733120441
F-36.069941908121109
F63.031266570091248
tp273
a(F-7.267750546336174
F-31.583775300532579
F64.297146499156952
tp274
a(F-7.253019280731678
F-26.633177109062672
F64.066938757896423
tp275
a(F-7.2448941469192505
F-21.595326706767082
F62.312064170837402
tp276
a(F-7.2405646964907646
F-16.757048726081848
F59.438370883464813
tp277
a(F-7.2378279790282249
F-12.437697172164917
F56.080254226922989
tp278
a(F-7.2357607558369637
F-8.3911287486553192
F52.386292368173599
tp279
a(F-7.2340441644191742
F-4.3978277444839478
F48.393499076366425
tp280
a(F-7.2327738851308823
F-0.60921159386634827
F44.392088383436203
tp281
a(F-7.2319715395569801
F2.9754182696342468
F40.507991164922714
tp282
a(F-7.2316767424345016
F6.4486582577228546
F36.728704243898392
tp283
a(F-7.2319359481334686
F9.9193442761898041
F33.001398533582687
tp284
a(F-7.2328057363629341
F13.305266082286835
F29.463369399309158
tp285
a(F-7.234351173043251
F16.598961740732193
F26.159441143274307
tp286
a(F-7.236659087240696
F19.888186395168304
F23.028463631868362
tp287
a(F-7.2398296520113945
F23.198357045650482
F20.074378669261932
tp288
a(F-7.2439723014831543
F26.554232031106949
F17.301781266927719
tp289
a(F-7.2491951733827591
F29.980654805898666
F14.716489136219025
tp290
a(F-7.255727618932724
F33.574522197246552
F12.283067971467972
tp291
a(F-7.2635042518377304
F37.293050974607468
F10.057919770479202
tp292
a(F-7.2721926346421242
F41.049753591418266
F8.1133719086647034
tp293
a(F-7.2818128876388073
F44.981902584433556
F6.3924279808998108
tp294
a(F-7.2921026274561882
F49.1481052339077
F4.8898764550685883
tp295
a(F-7.3023960553109646
F53.51033366471529
F3.6379213333129883
tp296
a(F-7.3120500333607197
F58.060335122048855
F2.6377727687358856
tp297
a(F-7.32059545814991
F62.859692923724651
F1.8691228330135345
tp298
a(F-7.3275286769494414
F67.821577154099941
F1.31737419962883
tp299
a(F-7.3325649481266737
F72.788910130038857
F0.95811033248901367
tp300
a(F-7.3359495063778013
F77.76109516248107
F0.73859766125679016
tp301
a(F-7.3380220955004916
F82.737272568978369
F0.61448304355144501
tp302
a(F-7.3391422686108854
F87.716483402065933
F0.55074368044734001
tp303
a(F-7.3396351995761506
F92.697827206342481
F0.521687351167202
tp304
a(F-7.3397574960836209
F97.68050455476623
F0.51010401360690594
tp305
a(F-7.3396819950430654
F102.67479803119204
F0.50575589388608932
tp306
a(F-7.3395013980625663
F107.69082107880968
F0.50348233385011554
tp307
a(F-7.3392479973263107
F112.71744731778745
F0.50123687437735498
tp308
a(F-2.3569619217887521
F-64.783796280622482
F2.5422128438949585
tp309
a(F-2.3560104971984401
F-63.630426913499832
F7.4001729413866997
tp310
a(F-2.3549474137835205
F-62.410150021314621
F12.24060170352459
tp311
a(F-2.3537492423783988
F-61.114813536405563
F17.058780267834663
tp312
a(F-2.3523840485140681
F-59.7347172498703
F21.848032757639885
tp313
a(F-2.3508073529228568
F-58.258282244205475
F26.598998129367828
tp314
a(F-2.34893549233675
F-56.654539585113525
F31.344454914331436
tp315
a(F-2.3467341084033251
F-54.955459833145142
F35.937248393893242
tp316
a(F-2.3440367598086596
F-53.108101457357407
F40.429235756397247
tp317
a(F-2.3405337240546942
F-51.03046116232872
F44.916202142834663
tp318
a(F-2.3359371684491634
F-48.728849768638611
F49.224575474858284
tp319
a(F-2.3296987172216177
F-46.153828710317612
F53.275557428598404
tp320
a(F-2.3210013955831528
F-43.240605920553207
F56.951915800571442
tp321
a(F-2.3088892437517643
F-39.90645033121109
F60.077469229698181
tp322
a(F-2.2933342158794403
F-36.05932679772377
F62.390153408050537
tp323
a(F-2.2776383981108665
F-31.569548416882753
F63.531297087669373
tp324
a(F-2.2684256732463837
F-26.619547702372074
F63.155877411365509
tp325
a(F-2.2660229206085205
F-21.584862977266312
F61.25422802567482
tp326
a(F-2.266207717359066
F-16.749275088310242
F58.248365640640259
tp327
a(F-2.2667050436139107
F-12.431599646806717
F54.786027610301971
tp328
a(F-2.267110675573349
F-8.3861545920372009
F51.012795925140381
tp329
a(F-2.2674161344766617
F-4.3937219977378845
F46.962176293134689
tp330
a(F-2.2677339762449265
F-0.60583755373954773
F42.927687644958496
tp331
a(F-2.2681707888841629
F2.9780997633934021
F39.033115655183792
tp332
a(F-2.2688435241580009
F6.4506105482578278
F35.263743191957474
tp333
a(F-2.2698547765612602
F9.9204691052436829
F31.565380722284317
tp334
a(F-2.2712589129805565
F13.305458784103394
F28.072729051113129
tp335
a(F-2.2731278017163277
F16.598109245300293
F24.828101456165314
tp336
a(F-2.2755646780133247
F19.886149615049362
F21.769269555807114
tp337
a(F-2.2786627411842346
F23.194999128580093
F18.8986496925354
tp338
a(F-2.2825156450271606
F26.549437791109085
F16.219306170940399
tp339
a(F-2.2872082442045212
F29.974359095096588
F13.735444605350494
tp340
a(F-2.2929207310080528
F33.566718339920044
F11.412063926458359
tp341
a(F-2.2995703816413879
F37.2838966101408
F9.301351398229599
tp342
a(F-2.3068493008613586
F41.039602100849152
F7.4698221385478973
tp343
a(F-2.3147571906447411
F44.971228942275047
F5.8611724972724915
tp344
a(F-2.3230654746294022
F49.137512609362602
F4.4681282639503479
tp345
a(F-2.3312397617846727
F53.50046531111002
F3.3179429471492767
tp346
a(F-2.3387943152338266
F58.051736734807491
F2.4082562923431396
tp347
a(F-2.3453967534005642
F62.852736882865429
F1.716871440410614
tp348
a(F-2.3506938545033336
F67.816372033208609
F1.2264710366725922
tp349
a(F-2.3544970331713557
F72.785303669050336
F0.91121822595596313
tp350
a(F-2.3570107676205225
F77.758813654072583
F0.72100681066513062
tp351
a(F-2.3584984703920782
F82.735997369978577
F0.61457929015159607
tp352
a(F-2.3592299855081365
F87.715908100130036
F0.56004565209150314
tp353
a(F-2.3594435770064592
F92.697696324670687
F0.53450430184602737
tp354
a(F-2.3593217330053449
F97.680634981952608
F0.52292315289378166
tp355
a(F-2.358979495591484
F102.6750839187298
F0.51649501733481884
tp356
a(F-2.3584671491989866
F107.69122314482229
F0.51077049225568771
tp357
a(F-2.3577860869118012
F112.71797137317481
F0.5038704271428287
tp358
a(F2.6249582598684356
F-64.783548086881638
F2.5191266313195229
tp359
a(F2.6263797471765429
F-63.630148649215698
F7.3288994655013084
tp360
a(F2.6279668579809368
F-62.409833580255508
F12.121288880705833
tp361
a(F2.6297525013796985
F-61.114448070526123
F16.891556054353714
tp362
a(F2.6317802537232637
F-59.734287858009338
F21.632967919111252
tp363
a(F2.634108898229897
F-58.257768094539642
F26.336058020591736
tp364
a(F2.6368488315492868
F-56.653909355401993
F31.032958671450615
tp365
a(F2.6400309018790722
F-54.954671680927277
F35.577612906694412
tp366
a(F2.6438607349991798
F-53.107088387012482
F40.020649090409279
tp367
a(F2.648720808327198
F-51.029106259346008
F44.455829977989197
tp368
a(F2.6549079138785601
F-48.726966112852097
F48.70999002456665
tp369
a(F2.662992250174284
F-46.151095569133759
F52.703085780143738
tp370
a(F2.6737363487482071
F-43.236479431390762
F56.316191673278809
tp371
a(F2.6877796351909637
F-39.90012925863266
F59.370819658041
tp372
a(F2.7041779384016991
F-36.050274640321732
F61.602180063724518
tp373
a(F2.7179637253284454
F-31.559201169759035
F62.649170398712158
tp374
a(F2.7224053144454956
F-26.611113458871841
F62.174499750137329
tp375
a(F2.7194898948073387
F-21.579220548272133
F60.18125382065773
tp376
a(F2.714868925511837
F-16.745517492294312
F57.099898815155029
tp377
a(F2.7110474035143852
F-12.42889529466629
F53.584015816450119
tp378
a(F2.7079980745911598
F-8.3841244280338287
F49.776464909315109
tp379
a(F2.7054470703005791
F-4.3922149538993835
F45.708189368247986
tp380
a(F2.7032874822616577
F-0.6047900915145874
F41.673399120569229
tp381
a(F2.7013385593891144
F2.978688508272171
F37.793715357780457
tp382
a(F2.6994059756398201
F6.4506929814815521
F34.052950084209442
tp383
a(F2.6973273977637291
F9.9199571311473846
F30.396287024021149
tp384
a(F2.695062518119812
F13.304261952638626
F26.955830186605453
tp385
a(F2.6925380080938339
F16.59613499045372
F23.771876126527786
tp386
a(F2.6896302327513695
F19.883290469646454
F20.78179344534874
tp387
a(F2.6862536445260048
F23.191154628992081
F17.9869125187397
tp388
a(F2.6823297888040543
F26.544531941413879
F15.389198869466782
tp389
a(F2.6777957081794739
F29.968362748622894
F12.991692543029785
tp390
a(F2.6725087538361549
F33.559659034013748
F10.759911090135574
tp391
a(F2.6665689833462238
F37.275933235883713
F8.7427652180194855
tp392
a(F2.6602649167180061
F41.031037896871567
F7.0022651553153992
tp393
a(F2.6535990666598082
F44.962452948093414
F5.4829373359680176
tp394
a(F2.6467626206576824
F49.128992900252342
F4.17608442902565
tp395
a(F2.6401803959161043
F53.492673441767693
F3.1052598357200623
tp396
a(F2.6342120785266161
F58.045051321387291
F2.265523374080658
tp397
a(F2.6290859440341592
F62.847401186823845
F1.6333840489387512
tp398
a(F2.6250446068588644
F67.812434669584036
F1.1895803213119507
tp399
a(F2.6222088378854096
F72.782628269866109
F0.90729716420173645
tp400
a(F2.6204106905497611
F77.75718629732728
F0.73848062753677368
tp401
a(F2.6194514939561486
F82.735180493909866
F0.64420217275619507
tp402
a(F2.6191380377858877
F87.715680569875985
F0.59486177563667297
tp403
a(F2.6193086593411863
F92.697880828287452
F0.56953418254852295
tp404
a(F2.6198501251637936
F97.681113490951248
F0.55465243756771088
tp405
a(F2.620708039496094
F102.6758019371191
F0.54225040227174759
tp406
a(F2.6218856119085103
F107.69218297209591
F0.5281117707490921
tp407
a(F2.6234299429343082
F112.71921706548892
F0.51012799981981516
tp408
a(F7.6069003915181383
F-64.783188343048096
F2.4868302419781685
tp409
a(F7.6088398229330778
F-63.629745244979858
F7.2291297391057014
tp410
a(F7.6110041500069201
F-62.40937477350235
F11.954281538724899
tp411
a(F7.6134367072954774
F-61.113918364048004
F16.657570958137512
tp412
a(F7.6161939408630133
F-59.733666568994522
F21.332281783223152
tp413
a(F7.6193507201969624
F-58.25702702999115
F25.968953117728233
tp414
a(F7.6230474915355444
F-56.653007477521896
F30.599056825041771
tp415
a(F7.6273121479898691
F-54.953556716442108
F35.078351303935051
tp416
a(F7.6323952525854111
F-53.105680465698242
F39.456290706992149
tp417
a(F7.6387617215514183
F-51.027273297309875
F43.824618771672249
tp418
a(F7.6467224434018135
F-48.724514901638031
F48.0117127597332
tp419
a(F7.6568766310811043
F-46.147730648517609
F51.937307506799698
tp420
a(F7.6699346378445625
F-43.231783837080002
F55.482176303863525
tp421
a(F7.6862081363797188
F-39.893705368041992
F58.467516034841537
tp422
a(F7.7037775442004204
F-36.04246611893177
F60.628714740276337
tp423
a(F7.7161335796117783
F-31.552180582657456
F61.606520026922226
tp424
a(F7.7164653465151787
F-26.607037231326103
F61.072070181369781
tp425
a(F7.70873112231493
F-21.577538654208183
F59.035937786102295
tp426
a(F7.699896402657032
F-16.745009869337082
F55.930243313312531
tp427
a(F7.6928007379174232
F-12.428902089595795
F52.407465755939484
tp428
a(F7.6870696917176247
F-8.3844211399555206
F48.607808530330658
tp429
a(F7.6821794360876083
F-4.3927449882030487
F44.56043154001236
tp430
a(F7.6780455335974693
F-0.60555902123451233
F40.55775398015976
tp431
a(F7.6744240149855614
F2.9776427745819092
F36.719036012887955
tp432
a(F7.6710447371006012
F6.4493082761764526
F33.027294129133224
tp433
a(F7.6676828451454639
F9.918149471282959
F29.427763313055038
tp434
a(F7.6643204316496849
F13.301950961351395
F26.049785315990448
tp435
a(F7.6608865633606911
F16.593245148658752
F22.932001292705536
tp436
a(F7.657233364880085
F19.879741460084915
F20.012038081884384
tp437
a(F7.6532832011580467
F23.186878472566605
F17.290495246648788
tp438
a(F7.6489728502929211
F26.539487153291702
F14.768603056669235
tp439
a(F7.6442596726119518
F29.962551981210709
F12.448611885309219
tp440
a(F7.6390288211405277
F33.553137734532356
F10.296691030263901
tp441
a(F7.6334015335887671
F37.268859505653381
F8.3591599464416504
tp442
a(F7.6276573985815048
F41.023671194911003
F6.6945002377033234
tp443
a(F7.6217904035001993
F44.955110162496567
F5.2482582032680511
tp444
a(F7.6159570431336761
F49.122034877538681
F4.0108358860015869
tp445
a(F7.6104962825775146
F53.486441478133202
F3.0030388236045837
tp446
a(F7.605669695942197
F58.039802953600883
F2.2181217074394226
tp447
a(F7.6016271151602268
F62.84329080209136
F1.6317602097988129
tp448
a(F7.5985319907777011
F67.809475161135197
F1.223323792219162
tp449
a(F7.5964603386819363
F72.780703995376825
F0.9653191864490509
tp450
a(F7.5952793806791306
F77.756137425079942
F0.81125330924987793
tp451
a(F7.5948498919606209
F82.734840968158096
F0.72386035323143005
tp452
a(F7.5950501216575503
F87.715906062163413
F0.67508071660995483
tp453
a(F7.5957930730655789
F92.698568162275478
F0.64521083235740662
tp454
a(F7.5970384674146771
F97.682212292449549
F0.62144123762845993
tp455
a(F7.5988047658465803
F102.67731974693015
F0.59598173201084137
tp456
a(F7.6011704308912158
F107.69418315659277
F0.56420618295669556
tp457
a(F7.6042605066904798
F112.72180977556854
F0.5231420136988163
tp458
a(F12.588842917466536
F-64.782702714204788
F2.4452743530273437
tp459
a(F12.591300900327042
F-63.629201084375381
F7.1006348580121994
tp460
a(F12.594042662531137
F-62.40875655412674
F11.73917230963707
tp461
a(F12.59712181519717
F-61.113206058740616
F16.356235563755035
tp462
a(F12.600607343018055
F-59.732833683490753
F20.945192649960518
tp463
a(F12.604589587077498
F-58.256038099527359
F25.496688917279243
tp464
a(F12.609238239005208
F-56.651811987161636
F30.04150852560997
tp465
a(F12.614577045664191
F-54.952092409133911
F34.437931641936302
tp466
a(F12.620899070054293
F-53.103855580091476
F38.734249606728554
tp467
a(F12.628746755421162
F-51.024942457675934
F43.02014471590519
tp468
a(F12.63843659684062
F-48.721482336521149
F47.126638263463974
tp469
a(F12.650580562651157
F-46.143733382225037
F50.974151849746704
tp470
a(F12.665809713304043
F-43.226541668176651
F54.444462805986404
tp471
a(F12.68408640474081
F-39.887218147516251
F57.360314309597015
tp472
a(F12.702608928084373
F-36.035848677158356
F59.460033297538757
tp473
a(F12.713692560791969
F-31.548083189874887
F60.390093982219696
tp474
a(F12.710592612624168
F-26.606619611382484
F59.830615729093552
tp475
a(F12.698718689382076
F-21.579138725996017
F57.79529020190239
tp476
a(F12.686082951724529
F-16.747188985347748
F54.711904227733612
tp477
a(F12.675914838910103
F-12.431147217750549
F51.225341796875
tp478
a(F12.66758968681097
F-8.386637270450592
F47.473167538642883
tp479
a(F12.660377845168114
F-4.3949572443962097
F43.483432471752167
tp480
a(F12.654235050082207
F-0.60783448815345764
F39.544384598731995
tp481
a(F12.648867752403021
F2.9752294421195984
F35.772674918174744
tp482
a(F12.643935117870569
F6.4466792643070221
F32.151122391223907
tp483
a(F12.639150824397802
F9.9152202606201172
F28.625674515962601
tp484
a(F12.634524766355753
F13.29864776134491
F25.322637110948563
tp485
a(F12.629991553723812
F16.58950600028038
F22.279276758432388
tp486
a(F12.625377357006073
F19.875508457422256
F19.434093981981277
tp487
a(F12.620612196624279
F23.182111799716949
F16.78728711605072
tp488
a(F12.615647355094552
F26.534175485372543
F14.339648455381393
tp489
a(F12.610459949821234
F29.956726104021072
F12.092957526445389
tp490
a(F12.604955079033971
F33.546877220273018
F10.014210969209671
tp491
a(F12.599280058406293
F37.262323409318924
F8.1476479172706604
tp492
a(F12.593717752955854
F41.017085149884224
F6.5489323437213898
tp493
a(F12.588247180683538
F44.948735609650612
F5.1648556888103485
tp494
a(F12.58299610670656
F49.116152249276638
F3.9853428304195404
tp495
a(F12.578240500763059
F53.481297478079796
F3.0291576385498047
tp496
a(F12.574168544262648
F58.035570465028286
F2.2883231639862061
tp497
a(F12.570873852819204
F62.840066611766815
F1.7379980087280273
tp498
a(F12.56846877746284
F67.80725590325892
F1.3565408885478973
tp499
a(F12.567006759345531
F72.779400359839201
F1.1159066557884216
tp500
a(F12.566393611952662
F77.755642705596983
F0.97068214416503906
tp501
a(F12.566551133990288
F82.735057885758579
F0.8846205472946167
tp502
a(F12.567431733012199
F87.716766367200762
F0.83046463131904602
tp503
a(F12.569029537960887
F92.700046971905977
F0.78895527124404907
tp504
a(F12.57138985581696
F97.684338218532503
F0.74725201725959778
tp505
a(F12.574626649729908
F102.68018291285262
F0.69690209627151489
tp506
a(F12.578927858732641
F107.69793920265511
F0.63194538652896881
tp507
a(F12.584539924515411
F112.72667677514255
F0.54753918200731277
tp508
a(F17.57076088746544
F-64.782084703445435
F2.395482212305069
tp509
a(F17.573683939408511
F-63.628509551286697
F6.9464815855026245
tp510
a(F17.576942902058363
F-62.407973170280457
F11.481061264872551
tp511
a(F17.580600108020008
F-61.112307101488113
F15.994669556617737
tp512
a(F17.584735133685172
F-59.731788337230682
F20.480820059776306
tp513
a(F17.589451054111123
F-58.254805713891983
F24.930355653166771
tp514
a(F17.59494161978364
F-56.650335550308228
F29.373352810740471
tp515
a(F17.601224076002836
F-54.950303941965103
F33.671230837702751
tp516
a(F17.608624018728733
F-53.101657658815384
F37.871148437261581
tp517
a(F17.617741629481316
F-51.022187024354935
F42.060683608055115
tp518
a(F17.628880642354488
F-48.717986851930618
F46.074491709470749
tp519
a(F17.642632775008678
F-46.13928896188736
F49.83452245593071
tp520
a(F17.659508787095547
F-43.221026480197906
F53.224743545055389
tp521
a(F17.679116576910019
F-39.881003648042679
F56.071201264858246
tp522
a(F17.697965711355209
F-36.030621111392975
F58.117660075426102
tp523
a(F17.707715779542923
F-31.546641297638416
F59.019600957632065
tp524
a(F17.701869547367096
F-26.609250210225582
F58.46644002199173
tp525
a(F17.686671867966652
F-21.583428859710693
F56.471409678459167
tp526
a(F17.670809164643288
F-16.751583874225616
F53.452757269144058
tp527
a(F17.657904468476772
F-12.435257822275162
F50.041901767253876
tp528
a(F17.64718408882618
F-8.3904732763767242
F46.373731672763824
tp529
a(F17.637765489518642
F-4.3986112177371979
F42.475850522518158
tp530
a(F17.62966188415885
F-0.61142486333847046
F38.630140751600266
tp531
a(F17.622548013925552
F2.971596360206604
F34.950391858816147
tp532
a(F17.61602171137929
F6.4429111480712891
F31.419782996177673
tp533
a(F17.609738495200872
F9.9112305343151093
F27.985600382089615
tp534
a(F17.603741608560085
F13.294367134571075
F24.770806610584259
tp535
a(F17.597974130883813
F16.584883987903595
F21.811516493558884
tp536
a(F17.592235481366515
F19.870506435632706
F19.047699719667435
tp537
a(F17.586463376879692
F23.176714092493057
F16.479419738054276
tp538
a(F17.580622978508472
F26.528397351503372
F14.107328504323959
tp539
a(F17.574710067827255
F29.950623631477356
F11.933000415563583
tp540
a(F17.568642955040559
F33.540552332997322
F9.924458920955658
tp541
a(F17.562600614503026
F37.25593926012516
F8.1242445111274719
tp542
a(F17.556880709715188
F41.010844647884369
F6.585712343454361
tp543
a(F17.551443262025714
F44.94286222755909
F5.2571417987346649
tp544
a(F17.546394364908338
F49.110871493816376
F4.1283140182495117
tp545
a(F17.541968759149313
F53.476792797446251
F3.2164378464221954
tp546
a(F17.538304217159748
F58.031961545348167
F2.5126782357692719
tp547
a(F17.535459287464619
F62.837420269846916
F1.9918231070041656
tp548
a(F17.533522948622704
F67.805571172386408
F1.6313350796699524
tp549
a(F17.532550014555454
F72.778622347861528
F1.4025275409221649
tp550
a(F17.53249366953969
F77.755721714347601
F1.260526180267334
tp551
a(F17.533344943076372
F82.735968871973455
F1.1694072186946869
tp552
a(F17.535140533000231
F87.718523513991386
F1.1019138991832733
tp553
a(F17.537970393896103
F92.702715826686472
F1.0383513867855072
tp554
a(F17.541987463831902
F97.688046830706298
F0.96489197015762329
tp555
a(F17.547435460612178
F102.68513543903828
F0.87130385637283325
tp556
a(F17.554660288617015
F107.70442785695195
F0.74895712733268738
tp557
a(F17.564088514074683
F112.73508413136005
F0.58960410952568054
tp558
a(F22.561058794148266
F-64.781337201595306
F2.3394127935171127
tp559
a(F22.564337211195379
F-63.627675175666809
F6.7726276814937592
tp560
a(F22.56799045111984
F-62.407031953334808
F11.189886480569839
tp561
a(F22.57208691816777
F-61.111233800649643
F15.58677376806736
tp562
a(F22.576713144779205
F-59.730550408363342
F19.956998243927956
tp563
a(F22.581980161368847
F-58.25336104631424
F24.291678667068481
tp564
a(F22.588096940889955
F-56.648626208305359
F28.620178624987602
tp565
a(F22.595071345567703
F-54.94826328754425
F32.807562664151192
tp566
a(F22.603244885802269
F-53.09919336438179
F36.899896651506424
tp567
a(F22.613245498389006
F-51.019165128469467
F40.982685759663582
tp568
a(F22.625341661274433
F-48.714261025190353
F44.89504674077034
tp569
a(F22.640064798295498
F-46.134733021259308
F48.561202496290207
tp570
a(F22.65776863694191
F-43.215696305036545
F51.868397086858749
tp571
a(F22.677738428115845
F-39.875588595867157
F54.647573471069336
tp572
a(F22.696059346199036
F-36.027133569121361
F56.650104016065598
tp573
a(F22.704275593161583
F-31.547711558640003
F57.543074250221252
tp574
a(F22.696295604109764
F-26.614448226988316
F57.025180011987686
tp575
a(F22.678614966571331
F-21.589930921792984
F55.106279075145721
tp576
a(F22.660187959671021
F-16.757824778556824
F52.190691441297531
tp577
a(F22.644977085292339
F-12.440960466861725
F48.891137063503265
tp578
a(F22.632147684693336
F-8.3957313895225525
F45.3399558365345
tp579
a(F22.620718669146299
F-4.4035723805427551
F41.564929813146591
tp580
a(F22.610775198787451
F-0.61624851822853088
F37.839637488126755
tp581
a(F22.601979058235884
F2.9667792618274689
F34.274818241596222
tp582
a(F22.593878928571939
F6.4379962682723999
F30.854540467262268
tp583
a(F22.586078345775604
F9.9061294794082642
F27.528020054101944
tp584
a(F22.578658236190677
F13.289015144109726
F24.414591819047928
tp585
a(F22.571573488414288
F16.579240888357162
F21.549402832984924
tp586
a(F22.564596918411553
F19.864550530910492
F18.874453812837601
tp587
a(F22.557673737290315
F23.170450985431671
F16.389942079782486
tp588
a(F22.550782633945346
F26.521866112947464
F14.096609503030777
tp589
a(F22.543937206268311
F29.943903475999832
F11.996089726686478
tp590
a(F22.537062210962176
F33.533767059445381
F10.057656556367874
tp591
a(F22.530372997745872
F37.249260678887367
F8.3224241435527802
tp592
a(F22.524192858487368
F41.004465147852898
F6.8417776823043823
tp593
a(F22.518459733575583
F44.936985343694687
F5.5657345354557037
tp594
a(F22.513265423476696
F49.105693176388741
F4.4841747283935547
tp595
a(F22.508824162185192
F53.472463212907314
F3.6130280494689941
tp596
a(F22.505245566368103
F58.028576724231243
F2.9427609443664551
tp597
a(F22.502574287354946
F62.835043843835592
F2.4477394819259644
tp598
a(F22.500904761254787
F67.804223943501711
F2.1043582856655121
tp599
a(F22.500319752842188
F72.778294255957007
F1.8829331696033478
tp600
a(F22.500833313912153
F77.756427697837353
F1.7384626269340515
tp601
a(F22.502519708126783
F82.737764616496861
F1.6345314979553223
tp602
a(F22.505517013370991
F87.72151836194098
F1.5429453253746033
tp603
a(F22.510034214705229
F92.707085927948356
F1.4425134360790253
tp604
a(F22.516364760696888
F97.694050287827849
F1.3172078430652618
tp605
a(F22.524930629879236
F102.69313443638384
F1.153507798910141
tp606
a(F22.536301417276263
F107.71490975096822
F0.9382154643535614
tp607
a(F22.551157740876079
F112.7486645206809
F0.657427579164505
tp608
a(F27.558873856556602
F-64.780479222536087
F2.2800031751394272
tp609
a(F27.562342917080969
F-63.626720279455185
F6.5880797654390335
tp610
a(F27.566206434741616
F-62.405960768461227
F10.880705118179321
tp611
a(F27.570535097271204
F-61.110022068023682
F15.153620928525925
tp612
a(F27.575417617335916
F-59.729167580604553
F19.40077269077301
tp613
a(F27.580966604873538
F-58.251768440008163
F23.613624200224876
tp614
a(F27.587394369766116
F-56.646771788597107
F27.820849403738976
tp615
a(F27.59469723328948
F-54.94609060883522
F31.891480460762978
tp616
a(F27.603212375193834
F-53.096627682447433
F35.870595902204514
tp617
a(F27.61355758830905
F-51.016105592250824
F39.841741174459457
tp618
a(F27.62594535946846
F-48.71062096953392
F43.649109899997711
tp619
a(F27.64081197977066
F-46.130494117736816
F47.219825565814972
tp620
a(F27.65833555907011
F-43.211096167564392
F50.445375591516495
tp621
a(F27.677545629441738
F-39.87155744433403
F53.162914246320724
tp622
a(F27.694388955831528
F-36.025774046778679
F55.133173435926437
tp623
a(F27.700763136148453
F-31.551255516707897
F56.036720871925354
tp624
a(F27.691113278269768
F-26.621903255581856
F55.581175953149796
tp625
a(F27.67172546684742
F-21.598329529166222
F53.770554572343826
tp626
a(F27.651428870856762
F-16.765683680772781
F50.991708040237427
tp627
a(F27.634414099156857
F-12.448112040758133
F47.834389746189117
tp628
a(F27.619843833148479
F-8.4023399651050568
F44.428638190031052
tp629
a(F27.606684535741806
F-4.4098296761512756
F40.803106993436813
tp630
a(F27.595101878046989
F-0.62234538793563843
F37.221513479948044
tp631
a(F27.584762033075094
F2.9606941938400269
F33.791434168815613
tp632
a(F27.575178865343332
F6.4318106472492218
F30.498329758644104
tp633
a(F27.565912091173232
F9.8997538983821869
F27.293921947479248
tp634
a(F27.55708246215363
F13.282389938831329
F24.293684095144272
tp635
a(F27.548659547232091
F16.572336435317993
F21.531978756189346
tp636
a(F27.540392028167844
F19.857359737157822
F18.95335054397583
tp637
a(F27.532232604920864
F23.162998139858246
F16.558363616466522
tp638
a(F27.524172496050596
F26.514211654663086
F14.34809336066246
tp639
a(F27.516241941601038
F29.936148151755333
F12.324452787637711
tp640
a(F27.508366271853447
F33.526055797934532
F10.458217114210129
tp641
a(F27.500800687819719
F37.24177984893322
F8.7892579734325409
tp642
a(F27.493902571499348
F40.997409254312515
F7.3671846687793732
tp643
a(F27.487586088478565
F44.930556684732437
F6.1439878940582275
tp644
a(F27.481935992836952
F49.100083366036415
F5.1097976565361023
tp645
a(F27.477165013551712
F53.467818453907967
F4.2793217897415161
tp646
a(F27.473375909030437
F58.024998057633638
F3.6422612965106964
tp647
a(F27.470620378851891
F62.832617782056332
F3.1722720563411713
tp648
a(F27.469026796519756
F67.803012164309621
F2.8441856503486633
tp649
a(F27.468733295798302
F72.778342396020889
F2.6266489624977112
tp650
a(F27.469831049442291
F77.757824330590665
F2.4736881852149963
tp651
a(F27.472495473921299
F82.740657354705036
F2.3474111557006836
tp652
a(F27.476989030838013
F87.726128974929452
F2.2175564467906952
tp653
a(F27.483672253787518
F92.71372833289206
F2.0601359605789185
tp654
a(F27.493025727570057
F97.703152824193239
F1.8553775250911713
tp655
a(F27.505717299878597
F102.70527265779674
F1.5844700038433075
tp656
a(F27.522627484053373
F107.73083302006125
F1.2270514965057373
tp657
a(F27.54477397352457
F112.7692811191082
F0.7604215145111084
tp658
a(F32.536667655105703
F-64.779553532600403
F2.2210902124643326
tp659
a(F32.540117199067026
F-63.625693500041962
F6.4047063440084457
tp660
a(F32.543956723995507
F-62.404816150665283
F10.57338060438633
tp661
a(F32.548254838213325
F-61.108739197254181
F14.723034039139748
tp662
a(F32.553096793591976
F-59.727721452713013
F18.847870498895645
tp663
a(F32.558589603751898
F-58.250128626823425
F22.939742341637611
tp664
a(F32.564935203641653
F-56.644898951053619
F27.026727348566055
tp665
a(F32.572117768228054
F-54.943946450948715
F30.981874600052834
tp666
a(F32.580448172986507
F-53.094165623188019
F34.849453628063202
tp667
a(F32.590494342148304
F-51.013273596763611
F38.711329191923141
tp668
a(F32.602398253977299
F-48.707407593727112
F42.417064994573593
tp669
a(F32.616475790739059
F-46.126999109983444
F45.897186428308487
tp670
a(F32.632729277014732
F-43.207722812891006
F49.048101365566254
tp671
a(F32.650020688772202
F-39.869389057159424
F51.714218586683273
tp672
a(F32.664420366287231
F-36.02682888507843
F53.666800379753113
tp673
a(F32.668540060520172
F-31.557268347591162
F54.601037204265594
tp674
a(F32.657497502863407
F-26.631466016173363
F54.232711911201477
tp675
a(F32.63707373291254
F-21.608497336506844
F52.557961255311966
tp676
a(F32.615615494549274
F-16.775108277797699
F49.943530380725861
tp677
a(F32.597369596362114
F-12.456729203462601
F46.953159749507904
tp678
a(F32.581519190222025
F-8.4103732109069824
F43.715116292238235
tp679
a(F32.567012667655945
F-4.4175054728984833
F40.259680598974228
tp680
a(F32.554092964157462
F-0.62987655401229858
F36.839615166187286
tp681
a(F32.542445315048099
F2.9531480669975281
F33.559379041194916
tp682
a(F32.531563211465254
F6.4241330027580261
F30.406326472759247
tp683
a(F32.520973420701921
F9.8918552398681641
F27.335172057151794
tp684
a(F32.51083697937429
F13.274216115474701
F24.457421749830246
tp685
a(F32.501140017062426
F16.563867092132568
F21.806839793920517
tp686
a(F32.491611372679472
F19.84860035777092
F19.330941706895828
tp687
a(F32.482212066650391
F23.153988033533096
F17.030894130468369
tp688
a(F32.472945090383291
F26.505028814077377
F14.908305615186691
tp689
a(F32.463855996727943
F29.926912531256676
F12.96557605266571
tp690
a(F32.454866662621498
F33.516933232545853
F11.175239592790604
tp691
a(F32.446274228394032
F37.232975885272026
F9.5760400593280792
tp692
a(F32.438475720584393
F40.989133134484291
F8.2158573567867279
tp693
a(F32.43136128783226
F44.923027366399765
F7.0488635301589966
tp694
a(F32.425014764070511
F49.093512281775475
F6.0654843151569366
tp695
a(F32.41966300457716
F53.462374955415726
F5.2790405452251434
tp696
a(F32.415419608354568
F58.02081385999918
F4.6781493127346039
tp697
a(F32.412360206246376
F62.82982462644577
F4.235217422246933
tp698
a(F32.410670667886734
F67.801727756857872
F3.922664999961853
tp699
a(F32.410567753016949
F72.778675096109509
F3.7064565122127533
tp700
a(F32.412234216928482
F77.759942366741598
F3.5386044085025787
tp701
a(F32.415964871644974
F82.744809750467539
F3.3785603046417236
tp702
a(F32.422173723578453
F87.732667645439506
F3.192660003900528
tp703
a(F32.431415319442749
F92.723135141655803
F2.9525563716888428
tp704
a(F32.44442218542099
F97.716071479022503
F2.6328366696834564
tp705
a(F32.462201327085495
F102.72254976630211
F2.2068696022033691
tp706
a(F32.486055944114923
F107.75353223085403
F1.6437745690345764
tp707
a(F32.517410505563021
F112.79859368503094
F0.90793654322624207
tp708
a(F37.463919483940117
F-64.778624147176743
F2.1666654497385025
tp709
a(F37.467116415500641
F-63.624666154384613
F6.2349467128515244
tp710
a(F37.47067267075181
F-62.403678238391876
F10.288770228624344
tp711
a(F37.474650231190026
F-61.107475966215134
F14.324236169457436
tp712
a(F37.479125186800957
F-59.726315945386887
F18.335827946662903
tp713
a(F37.484191546216607
F-58.248561561107635
F22.315805643796921
tp714
a(F37.490027384832501
F-56.643147587776184
F26.291780546307564
tp715
a(F37.496605850756168
F-54.941994428634644
F30.140615463256836
tp716
a(F37.50419045612216
F-53.091999560594559
F33.90602034330368
tp717
a(F37.513261597603559
F-51.01089546084404
F37.66859570145607
tp718
a(F37.523883290588856
F-48.704882860183716
F41.28323221206665
tp719
a(F37.536236003041267
F-46.124536097049713
F44.68416103720665
tp720
a(F37.550158224999905
F-43.205856680870056
F47.773163735866547
tp721
a(F37.5644286647439
F-39.869281709194183
F50.402488887310028
tp722
a(F37.575443960726261
F-36.030341356992722
F52.35451540350914
tp723
a(F37.576795436441898
F-31.565690442919731
F53.33954906463623
tp724
a(F37.564451828598976
F-26.643120154738426
F53.080486208200455
tp725
a(F37.54355800896883
F-21.620513319969177
F51.563814491033554
tp726
a(F37.52165687084198
F-16.786253660917282
F49.134586095809937
tp727
a(F37.502825859934092
F-12.467016279697418
F46.32880911231041
tp728
a(F37.486253570765257
F-8.4200665354728699
F43.273764967918396
tp729
a(F37.470893147401512
F-4.4268559217453003
F40.002190560102463
tp730
a(F37.457048755604774
F-0.63911113142967224
F36.755345344543457
tp731
a(F37.444434767588973
F2.9438633322715759
F33.634784668684006
tp732
a(F37.432540180161595
F6.4146787226200104
F30.630178183317184
tp733
a(F37.420871678739786
F9.8821415901184082
F27.699695706367493
tp734
a(F37.409628707915545
F13.264192551374435
F24.950870484113693
tp735
a(F37.398816324770451
F16.553519070148468
F22.417050361633301
tp736
a(F37.38815063983202
F19.83794116973877
F20.049071490764618
tp737
a(F37.377602368593216
F23.143067091703415
F17.848892986774445
tp738
a(F37.367187649011612
F26.493936836719513
F15.818853974342346
tp739
a(F37.356967881321907
F29.915785551071167
F13.962010055780411
tp740
a(F37.34686005115509
F33.505957320332527
F12.252917259931564
tp741
a(F37.337204426527023
F37.222380951046944
F10.729218244552612
tp742
a(F37.328439563512802
F40.979154452681541
F9.4369636178016663
tp743
a(F37.320432782173157
F44.913916692137718
F8.332679808139801
tp744
a(F37.31327112019062
F49.085521377623081
F7.4070219993591309
tp745
a(F37.307203680276871
F53.455717571079731
F6.6715252697467804
tp746
a(F37.302364468574524
F58.015670489519835
F6.1131474673748016
tp747
a(F37.298861473798752
F62.826385710388422
F5.7022490799427032
tp748
a(F37.296949177980423
F67.800172803923488
F5.4076343178749084
tp749
a(F37.296934753656387
F72.779174001887441
F5.191236823797226
tp750
a(F37.29910047352314
F77.762741623446345
F5.0018225312232971
tp751
a(F37.303874894976616
F82.750263350084424
F4.794836014509201
tp752
a(F37.31185220181942
F87.741271173581481
F4.5316851139068604
tp753
a(F37.323833584785461
F92.735565822571516
F4.1778672933578491
tp754
a(F37.34089021384716
F97.733229480683804
F3.7001018822193146
tp755
a(F37.364493563771248
F102.74559400230646
F3.060900092124939
tp756
a(F37.396502777934074
F107.78383166342974
F2.2147691547870636
tp757
a(F37.438752958551049
F112.8374330252409
F1.1081164479255676
tp758
a(F42.314582351944409
F-64.777768015861511
F2.1202102303504944
tp759
a(F42.317301558330655
F-63.623722791671753
F6.0897523462772369
tp760
a(F42.320324638392776
F-62.402639538049698
F10.045264706015587
tp761
a(F42.323702721856534
F-61.1063332259655
F13.983022123575211
tp762
a(F42.327497561462224
F-59.725060433149338
F17.897781446576118
tp763
a(F42.331784132868052
F-58.247185200452805
F21.782217055559158
tp764
a(F42.336704388260841
F-56.641643881797791
F25.66363613307476
tp765
a(F42.342222847044468
F-54.940367609262466
F29.422289252281189
tp766
a(F42.348537895828485
F-53.090266495943069
F33.101618781685829
tp767
a(F42.356011144816875
F-51.009105652570724
F36.781471222639084
tp768
a(F42.364627987146378
F-48.703164875507355
F40.321738511323929
tp769
a(F42.374425236135721
F-46.123181402683258
F43.660450726747513
tp770
a(F42.385092288255692
F-43.205487787723541
F46.704928666353226
tp771
a(F42.395389497280121
F-39.871091216802597
F49.31542581319809
tp772
a(F42.40217462927103
F-36.036049261689186
F51.285492092370987
tp773
a(F42.400202579796314
F-31.576308641582727
F52.34047344326973
tp774
a(F42.386515505611897
F-26.656861573457718
F52.209166437387466
tp775
a(F42.365633435547352
F-21.63455405831337
F50.867026478052139
tp776
a(F42.344014022499323
F-16.799386382102966
F48.636703610420227
tp777
a(F42.325300764292479
F-12.479268729686737
F46.026052474975586
tp778
a(F42.30864392593503
F-8.4317162036895752
F43.162402212619781
tp779
a(F42.293011505156755
F-4.438164234161377
F40.081790506839752
tp780
a(F42.278743170201778
F-0.65031352639198303
F37.013960599899292
tp781
a(F42.265588857233524
F2.9325951337814331
F34.057895958423615
tp782
a(F42.253049317747355
F6.4032208025455475
F31.205983936786652
tp783
a(F42.240627758204937
F9.8704001605510712
F28.420207798480988
tp784
a(F42.228558108210564
F13.252115041017532
F25.804232746362686
tp785
a(F42.216867178678513
F16.54109063744545
F23.391165316104889
tp786
a(F42.205269739031792
F19.825176000595093
F21.135410040616989
tp787
a(F42.193750396370888
F23.130018323659897
F19.039889961481094
tp788
a(F42.182341977953911
F26.48070316016674
F17.107828855514526
tp789
a(F42.171124622225761
F29.902515932917595
F15.343072444200516
tp790
a(F42.160014405846596
F33.492858037352562
F13.722470372915268
tp791
a(F42.149394303560257
F37.209710985422134
F12.282495677471161
tp792
a(F42.139741390943527
F40.967183858156204
F11.067114979028702
tp793
a(F42.13090306520462
F44.902941174805164
F10.035345703363419
tp794
a(F42.12296923995018
F49.075845330953598
F9.1778958141803741
tp795
a(F42.116209223866463
F53.447609283030033
F8.5038836896419525
tp796
a(F42.110775738954544
F58.009364452213049
F7.9977845251560211
tp797
a(F42.106805190443993
F62.822130504995584
F7.6268793642520905
tp798
a(F42.104615554213524
F67.79820255190134
F7.3548276722431183
tp799
a(F42.10460077226162
F72.77970870025456
F7.1378820240497589
tp800
a(F42.107141062617302
F77.766095360741019
F6.9201845526695251
tp801
a(F42.112806141376495
F82.756889002397656
F6.6516948640346527
tp802
a(F42.122396245598793
F87.75181033462286
F6.2872316837310791
tp803
a(F42.137017473578453
F92.750903639942408
F5.784160703420639
tp804
a(F42.158184990286827
F97.754538297653198
F5.0988509654998779
tp805
a(F42.187986850738525
F102.77432961761951
F4.1795055866241455
tp806
a(F42.228968128561974
F107.82151816785336
F2.9613160192966461
tp807
a(F42.283217327669263
F112.8849460631609
F1.3669483959674835
tp808
a(F47.062003128463402
F-64.777062237262726
F2.0842795670032501
tp809
a(F47.06406123470515
F-63.622947067022324
F5.9772554039955139
tp810
a(F47.066347967833281
F-62.401789605617523
F9.8565485179424286
tp811
a(F47.068900416605175
F-61.105405360460281
F13.71859422326088
tp812
a(F47.07176224142313
F-59.724052339792252
F17.558409437537193
tp813
a(F47.074984560720623
F-58.246097475290298
F21.369063898921013
tp814
a(F47.07866445556283
F-56.64048233628273
F25.177754670381546
tp815
a(F47.082761120051146
F-54.939150959253311
F28.867487654089928
tp816
a(F47.087395958602428
F-53.089032769203186
F32.481778904795647
tp817
a(F47.092790767550468
F-51.007936179637909
F36.100305199623108
tp818
a(F47.09885548427701
F-48.702227979898453
F39.58733931183815
tp819
a(F47.105484556406736
F-46.122815877199173
F42.884649097919464
tp820
a(F47.112235058099031
F-43.206357419490814
F45.904965370893478
tp821
a(F47.117890894412994
F-39.874386519193649
F48.516345083713531
tp822
a(F47.119839612394571
F-36.043406620621681
F50.523087650537491
tp823
a(F47.114097587764263
F-31.588665179908276
F51.665029674768448
tp824
a(F47.098988190293312
F-26.672497265040874
F51.675692349672318
tp825
a(F47.078517813235521
F-21.650651171803474
F50.518527537584305
tp826
a(F47.057853067526594
F-16.814639627933502
F48.493935644626617
tp827
a(F47.039944542571902
F-12.4936363697052
F46.082260191440582
tp828
a(F47.023843538016081
F-8.4454518258571625
F43.412074953317642
tp829
a(F47.008534472435713
F-4.451524019241333
F40.52354297041893
tp830
a(F46.994360320270061
F-0.66353771090507507
F37.635338425636292
tp831
a(F46.981110468506813
F2.9193256199359894
F34.844294458627701
tp832
a(F46.968313984572887
F6.3897722661495209
F32.14586266875267
tp833
a(F46.955487489700317
F9.8566684722900391
F29.506110280752182
tp834
a(F46.942897193133831
F13.238037258386612
F27.025019824504852
tp835
a(F46.930596694350243
F16.526643663644791
F24.735577762126923
tp836
a(F46.918312788009644
F19.810367494821548
F22.595942676067352
tp837
a(F46.906051382422447
F23.114899829030037
F20.610131114721298
tp838
a(F46.893868401646614
F26.465376958250999
F18.782354027032852
tp839
a(F46.8818678855896
F29.887142568826675
F17.117351531982422
tp840
a(F46.869972601532936
F33.477665036916733
F15.594539493322372
tp841
a(F46.858606487512589
F37.194989919662476
F14.249059170484543
tp842
a(F46.848276555538177
F40.953244127333164
F13.122372001409531
tp843
a(F46.838812559843063
F44.890126019716263
F12.176100522279739
tp844
a(F46.830302193760872
F49.064512260258198
F11.400732278823853
tp845
a(F46.823022097349167
F53.438077073544264
F10.802121549844742
tp846
a(F46.817131489515305
F58.00191243365407
F10.36123114824295
tp847
a(F46.812782138586044
F62.817051036283374
F10.041036903858185
tp848
a(F46.810337603092194
F67.795766163617373
F9.7982760965824127
tp849
a(F46.810263067483902
F72.780166970565915
F9.5816515386104584
tp850
a(F46.813028141856194
F77.769811237230897
F9.3292310535907745
tp851
a(F46.819343462586403
F82.764396257698536
F8.9839553534984589
tp852
a(F46.830234289169312
F87.763878922909498
F8.4923394918441772
tp853
a(F46.84716585278511
F92.768605262041092
F7.8015661239624023
tp854
a(F46.872203856706619
F97.779273182153702
F6.855032205581665
tp855
a(F46.90820150077343
F102.80772076547146
F5.5829510390758514
tp856
a(F46.958450198173523
F107.86487670242786
F3.89619180560112
tp857
a(F47.024855133146048
F112.93793296813965
F1.6877640187740326
tp858
a(F51.683982140442822
F-64.776565760374069
F2.0601776242256165
tp859
a(F51.685265815467574
F-63.622402429580688
F5.901694267988205
tp860
a(F51.686690939590335
F-62.401194989681244
F9.7297787815332413
tp861
a(F51.688278761226684
F-61.104760199785233
F13.541010931134224
tp862
a(F51.69005284179002
F-59.723358154296875
F17.330641627311707
tp863
a(F51.692038292996585
F-58.245359808206558
F21.09210105240345
tp864
a(F51.694283121265471
F-56.639713436365128
F24.852671802043915
tp865
a(F51.69674458168447
F-54.938376635313034
F28.497384011745453
tp866
a(F51.699462663382292
F-53.088300734758377
F32.070161700248718
tp867
a(F51.70251128077507
F-51.007341802120209
F35.651093035936356
tp868
a(F51.705735379830003
F-48.701953589916229
F39.108055174350739
tp869
a(F51.708898115903139
F-46.123212218284607
F42.386335283517838
tp870
a(F51.711446257308125
F-43.208087205886841
F45.403739511966705
tp871
a(F51.712217081338167
F-39.878610849380493
F48.035604327917099
tp872
a(F51.709140537306666
F-36.051718935370445
F50.096210658550262
tp873
a(F51.699484199285507
F-31.602080002427101
F51.339021325111389
tp874
a(F51.682943491847254
F-26.689518615603447
F51.501198977231979
tp875
a(F51.663167789578438
F-21.668474242091179
F50.533712387084961
tp876
a(F51.643961895257235
F-16.831770926713943
F48.715551763772964
tp877
a(F51.627396699041128
F-12.509893015027046
F46.501085460186005
tp878
a(F51.612365067005157
F-8.4610293507575989
F44.021312534809113
tp879
a(F51.597861982882023
F-4.4666604101657867
F41.321318238973618
tp880
a(F51.584204241633415
F-0.67847725749015808
F38.609448850154877
tp881
a(F51.571222253143787
F2.9043877720832825
F35.980866879224777
tp882
a(F51.558486871421337
F6.3746856153011322
F33.434338718652725
tp883
a(F51.545543476939201
F9.8413107693195343
F30.940251708030701
tp884
a(F51.532690316438675
F13.222328037023544
F28.595070362091064
tp885
a(F51.520013898611069
F16.510544329881668
F26.431774020195007
tp886
a(F51.507267728447914
F19.793875053524971
F24.412353426218033
tp887
a(F51.494487524032593
F23.098060697317123
F22.542012363672256
tp888
a(F51.481759831309319
F26.448296740651131
F20.826036065816879
tp889
a(F51.469219088554382
F29.869994834065437
F19.270100474357605
tp890
a(F51.456803604960442
F33.460701569914818
F17.856464833021164
tp891
a(F51.444972813129425
F37.178537234663963
F16.618676036596298
tp892
a(F51.434249669313431
F40.937651202082634
F15.595128208398819
tp893
a(F51.42444583773613
F44.875779330730438
F14.750146061182022
tp894
a(F51.415636450052261
F49.051812637597322
F14.073636680841446
tp895
a(F51.4080870449543
F53.427378855645657
F13.567177057266235
tp896
a(F51.401946932077408
F57.993521811440587
F13.207038670778275
tp897
a(F51.397367686033249
F62.811283065006137
F12.950554847717285
tp898
a(F51.39473882317543
F67.792907552793622
F12.745616018772125
tp899
a(F51.39457979798317
F72.780482321977615
F12.531392604112625
tp900
a(F51.397440612316132
F77.773691385984421
F12.238450109958649
tp901
a(F51.404169678688049
F82.7724281065166
F11.801210254430771
tp902
a(F51.416028648614883
F87.77692024409771
F11.156211107969284
tp903
a(F51.434882551431656
F92.787846587598324
F10.238425254821777
tp904
a(F51.463430315256119
F97.806213796138763
F8.9756692349910736
tp905
a(F51.505379855632782
F102.84387724101543
F7.2764928936958313
tp906
a(F51.564657233655453
F107.91079729795456
F5.0225497782230377
tp907
a(F51.642218116670847
F112.99133425951004
F2.0718308091163635
tp908
a(F56.167336901329691
F-64.776305705308914
F2.0479149222373962
tp909
a(F56.167817462410312
F-63.622117400169373
F5.8632217049598694
tp910
a(F56.168349649407901
F-62.400884717702866
F9.6652505248785019
tp911
a(F56.168938784277998
F-61.104425638914108
F13.450700551271439
tp912
a(F56.169588289223611
F-59.723002463579178
F17.215025514364243
tp913
a(F56.170297832228243
F-58.244990170001984
F20.951974913477898
tp914
a(F56.171067076735198
F-56.639344185590744
F24.689101040363312
tp915
a(F56.171854663174599
F-54.938034415245056
F28.312708497047424
tp916
a(F56.172623170074075
F-53.088034182786942
F31.867418766021729
tp917
a(F56.17330571077764
F-51.007246524095535
F35.434270977973938
tp918
a(F56.173697070684284
F-48.702206909656525
F38.883913576602936
tp919
a(F56.173452222719789
F-46.124151080846786
F42.164820820093155
tp920
a(F56.171939210966229
F-43.210341602563858
F45.199410527944565
tp921
a(F56.168073838227428
F-39.883284002542496
F47.869612008333206
tp922
a(F56.16029519867152
F-36.060358181595802
F49.998679369688034
tp923
a(F56.146994018927217
F-31.615815229713917
F51.352619022130966
tp924
a(F56.129149660468102
F-26.707161072641611
F51.671243011951447
tp925
a(F56.110195830464363
F-21.687299236655235
F50.893131196498871
tp926
a(F56.09266884624958
F-16.850100487470627
F49.277254968881607
tp927
a(F56.077708207070827
F-12.527380183339119
F47.254067540168762
tp928
a(F56.064011543989182
F-8.477797657251358
F44.958136886358261
tp929
a(F56.050571754574776
F-4.4829247295856476
F42.440116822719574
tp930
a(F56.037657409906387
F-0.69448760151863098
F39.898974746465683
tp931
a(F56.02513861656189
F2.8884186446666718
F37.428633213043213
tp932
a(F56.01263590157032
F6.3585851490497589
F35.03137943148613
tp933
a(F55.999733194708824
F9.8249333798885345
F32.682048320770264
tp934
a(F55.986763387918472
F13.205571383237839
F30.473763048648834
tp935
a(F55.9738529920578
F16.493352875113487
F28.439529091119766
tp936
a(F55.960793673992157
F19.77623462677002
F26.545214712619781
tp937
a(F55.947659254074097
F23.080014660954475
F24.797246277332306
tp938
a(F55.934574484825134
F26.429958313703537
F23.20201975107193
tp939
a(F55.921708092093468
F29.851555392146111
F21.766165256500244
tp940
a(F55.909019440412521
F33.442441627383232
F20.475052207708359
tp941
a(F55.896994471549988
F37.160820089280605
F19.360290199518204
tp942
a(F55.88615420460701
F40.920862339437008
F18.456506371498108
tp943
a(F55.876287460327148
F44.860339663922787
F17.730823934078217
tp944
a(F55.867444515228271
F49.038151394575834
F17.17215022444725
tp945
a(F55.859861135482788
F53.415868068113923
F16.77666237950325
tp946
a(F55.853663414716721
F57.984476607292891
F16.514677911996841
tp947
a(F55.848993301391602
F62.805024072527885
F16.336524575948715
tp948
a(F55.84625443816185
F67.789723669178784
F16.179292857646942
tp949
a(F55.846011191606522
F72.780639870092273
F15.970650941133499
tp950
a(F55.848891526460648
F77.777592405676842
F15.632325440645218
tp951
a(F55.855881541967392
F82.78068245574832
F15.08884334564209
tp952
a(F55.86848783493042
F87.790417477488518
F14.26521435379982
tp953
a(F55.889000415802002
F92.80779118090868
F13.08230260014534
tp954
a(F55.920789018273354
F97.834004402160645
F11.44988289475441
tp955
a(F55.968385815620422
F102.88055771589279
F9.2514138519763947
tp956
a(F56.035980731248856
F107.955641746521
F6.33496955037117
tp957
a(F56.12262412160635
F113.04005625844002
F2.5190849900245667
tp958
a(F60.437549415997637
F-64.776270657777786
F2.0462819784879684
tp959
a(F60.437293219642015
F-63.622079163789749
F5.8581056743860245
tp960
a(F60.437006514810491
F-62.400843918323517
F9.656714916229248
tp961
a(F60.436680315993726
F-61.104384005069733
F13.438905224204063
tp962
a(F60.436300327768549
F-59.722963809967041
F17.200298056006432
tp963
a(F60.435843822080642
F-58.244961857795715
F20.934908926486969
tp964
a(F60.435268048662692
F-56.639340341091156
F24.670706823468208
tp965
a(F60.434535943204537
F-54.938079535961151
F28.294577240943909
tp966
a(F60.433544408064336
F-53.08817321062088
F31.85205765068531
tp967
a(F60.432108120061457
F-51.007567495107651
F35.425565302371979
tp968
a(F60.429990461096168
F-48.702871769666672
F38.887681365013123
tp969
a(F60.4267703210935
F-46.125465482473373
F42.18966543674469
tp970
a(F60.421774735674262
F-43.21287727355957
F45.257968783378601
tp971
a(F60.414014318957925
F-39.888044714927673
F47.980246871709824
tp972
a(F60.402362398803234
F-36.068781062960625
F50.187576711177826
tp973
a(F60.386098835617304
F-31.629061348736286
F51.657074391841888
tp974
a(F60.367220461368561
F-26.724342775531113
F52.130353689193726
tp975
a(F60.349043257534504
F-21.70590665191412
F51.534273594617844
tp976
a(F60.333082981407642
F-16.868395745754242
F50.109927833080292
tp977
a(F60.31965060532093
F-12.544899135828018
F48.26653915643692
tp978
a(F60.307244062423706
F-8.4946043491363525
F46.143107295036316
tp979
a(F60.294841289520264
F-4.4992131590843201
F43.796274691820145
tp980
a(F60.282655075192451
F-0.71051162481307983
F41.41673880815506
tp981
a(F60.270590201020241
F2.8724319636821747
F39.097547292709351
tp982
a(F60.258314684033394
F6.3424428701400757
F36.844560593366623
tp983
a(F60.245454534888268
F9.8084688633680344
F34.637095749378204
tp984
a(F60.232382640242577
F13.188664227724075
F32.565069884061813
tp985
a(F60.219270020723343
F16.475934967398643
F30.661487013101578
tp986
a(F60.205952689051628
F19.758285775780678
F28.89603391289711
tp987
a(F60.192548543214798
F23.061581298708916
F27.276356220245361
tp988
a(F60.179223597049713
F26.411166056990623
F25.809925496578217
tp989
a(F60.166181564331055
F29.832617625594139
F24.504290729761124
tp990
a(F60.153403222560883
F33.42366736382246
F23.348139196634293
tp991
a(F60.141387373209
F37.142602875828743
F22.370749711990356
tp992
a(F60.130634367465973
F40.903612278401852
F21.602299392223358
tp993
a(F60.120903015136719
F44.844494037330151
F21.012755423784256
tp994
a(F60.112207323312759
F49.024145385250449
F20.589603096246719
tp995
a(F60.104741722345352
F53.404070412740111
F20.322571665048599
tp996
a(F60.098603665828705
F57.975193708669394
F20.174902766942978
tp997
a(F60.093924105167389
F62.798568191472441
F20.088756114244461
tp998
a(F60.091120630502701
F67.786376117728651
F19.988795876502991
tp999
a(F60.090803951025009
F72.780661793425679
F19.789572268724442
tp1000
a(F60.093684166669846
F77.781379867345095
F19.403004735708237
tp1001
a(F60.100889801979065
F82.788832571357489
F18.742727905511856
tp1002
a(F60.114178985357285
F87.803779512643814
F17.721096307039261
tp1003
a(F60.136271417140961
F92.827449470758438
F16.243469953536987
tp1004
a(F60.171176880598068
F97.861023515462875
F14.199766039848328
tp1005
a(F60.224054098129272
F102.91517914831638
F11.445873439311981
tp1006
a(F60.298746392130852
F107.99572539329529
F7.7933458387851715
tp1007
a(F60.391634963452816
F113.08021757006645
F3.0183727145195007
tp1008
a(F64.56589660627651
F-64.77642297744751
F2.0534131675958633
tp1009
a(F64.565026083961129
F-63.62224668264389
F5.8804987967014313
tp1010
a(F64.564056641422212
F-62.401028424501419
F9.6943600177764893
tp1011
a(F64.562967551406473
F-61.10458841919899
F13.491863384842873
tp1012
a(F64.561730152461678
F-59.723193019628525
F17.268768757581711
tp1013
a(F64.560304001905024
F-58.245224177837372
F21.019320026040077
tp1014
a(F64.558612813707441
F-56.639650642871857
F24.772009342908859
tp1015
a(F64.55662539973855
F-54.938461512327194
F28.413722470402718
tp1016
a(F64.554188657552004
F-53.08867010474205
F31.991095900535583
tp1017
a(F64.551026592962444
F-51.008262723684311
F35.588251292705536
tp1018
a(F64.546889258548617
F-48.70391583442688
F39.078986167907715
tp1019
a(F64.541312512010336
F-46.127138584852219
F42.417007833719254
tp1020
a(F64.533614974468946
F-43.215699046850204
F45.53227236866951
tp1021
a(F64.522908799350262
F-39.89291924238205
F48.317449569702148
tp1022
a(F64.508407257497311
F-36.077004984021187
F50.610386610031128
tp1023
a(F64.490019656717777
F-31.641727827489376
F52.198091804981232
tp1024
a(F64.470433220267296
F-26.740752589888871
F52.823232233524323
tp1025
a(F64.452891118824482
F-21.723791711032391
F52.401777446269989
tp1026
a(F64.438184469938278
F-16.886068686842918
F51.159063011407852
tp1027
a(F64.425982907414436
F-12.561857476830482
F49.485496401786804
tp1028
a(F64.414607226848602
F-8.5108896344900131
F47.52528503537178
tp1029
a(F64.403009817004204
F-4.5150180011987686
F45.341417670249939
tp1030
a(F64.391351237893105
F-0.72610151767730713
F43.117205798625946
tp1031
a(F64.379565894603729
F2.8568110764026642
F40.945091307163239
tp1032
a(F64.367364048957825
F6.32657690346241
F38.83453968167305
tp1033
a(F64.354411125183105
F9.7921681255102158
F36.76938533782959
tp1034
a(F64.341126665472984
F13.171792596578598
F34.836357533931732
tp1035
a(F64.327732130885124
F16.458417311310768
F33.068371474742889
tp1036
a(F64.314110994338989
F19.740102767944336
F31.438914984464645
tp1037
a(F64.300428241491318
F23.042790964245796
F29.956810414791107
tp1038
a(F64.286892831325531
F26.391917884349823
F28.63057667016983
tp1039
a(F64.27374055981636
F29.813158728182316
F27.468618094921112
tp1040
a(F64.260967463254929
F33.404344938695431
F26.463178485631943
tp1041
a(F64.249071180820465
F37.123848415911198
F25.640744984149933
tp1042
a(F64.238514363765717
F40.88586438074708
F25.026209533214569
tp1043
a(F64.229016095399857
F44.828206459060311
F24.592474728822708
tp1044
a(F64.22054523229599
F49.009758651256561
F24.325168907642365
tp1045
a(F64.213249683380127
F53.391950415214524
F24.206431567668915
tp1046
a(F64.207199811935425
F57.965641902992502
F24.191235154867172
tp1047
a(F64.202521651983261
F62.791895782924257
F24.212414711713791
tp1048
a(F64.199656188488007
F67.782868357840925
F24.180509597063065
tp1049
a(F64.19927191734314
F72.78058453835547
F23.995346277952194
tp1050
a(F64.202174484729767
F77.785130076110363
F23.558108925819397
tp1051
a(F64.209649920463562
F82.796989269554615
F22.77058869600296
tp1052
a(F64.223722755908966
F87.817122340202332
F21.531403720378876
tp1053
a(F64.247541278600693
F92.846863374114037
F19.729034304618835
tp1054
a(F64.285671293735504
F97.887086555361748
F17.231754630804062
tp1055
a(F64.343555763363838
F102.94716620445251
F13.865502089262009
tp1056
a(F64.423956796526909
F108.03029000759125
F9.402525395154953
tp1057
a(F64.520229369401932
F113.11194890737534
F3.5733827650547028
tp1058
a(F68.69431759568397
F-64.776716679334641
F2.0673993825912476
tp1059
a(F68.692992037627846
F-63.622570157051086
F5.9243865460157394
tp1060
a(F68.691516797058284
F-62.4013851583004
F9.7680801898241043
tp1061
a(F68.689862641971558
F-61.104983240365982
F13.595404282212257
tp1062
a(F68.687990689184517
F-59.723633021116257
F17.402233809232712
tp1063
a(F68.685848202556372
F-58.24572017788887
F21.183002218604088
tp1064
a(F68.683335330337286
F-56.640220463275909
F24.96682046353817
tp1065
a(F68.680427481420338
F-54.939131230115891
F28.640122815966606
tp1066
a(F68.67693879455328
F-53.089485675096512
F32.25078572332859
tp1067
a(F68.672533677890897
F-51.009310334920883
F35.884905755519867
tp1068
a(F68.666963534429669
F-48.705344080924988
F39.416967153549194
tp1069
a(F68.659749645739794
F-46.129217386245728
F42.802844792604446
tp1070
a(F68.650228682905436
F-43.218915373086929
F45.975652754306793
tp1071
a(F68.637608550488949
F-39.898099273443222
F48.832552045583725
tp1072
a(F68.621340475976467
F-36.085308402776718
F51.217452943325043
tp1073
a(F68.601709552109241
F-31.654119968414307
F52.92639684677124
tp1074
a(F68.581765376031399
F-26.756600240245461
F53.702584654092789
tp1075
a(F68.564686730504036
F-21.741019405424595
F53.451796472072601
tp1076
a(F68.55082505941391
F-16.90309277176857
F52.385385274887085
tp1077
a(F68.539431944489479
F-12.578201770782471
F50.876716077327728
tp1078
a(F68.528692469000816
F-8.5266124457120895
F49.075951218605042
tp1079
a(F68.517528608441353
F-4.5303370952606201
F47.052791684865952
tp1080
a(F68.50606195628643
F-0.74131003022193909
F44.983750522136688
tp1081
a(F68.494254484772682
F2.8414395451545715
F42.960745513439178
tp1082
a(F68.481850832700729
F6.3108005821704865
F40.996934980154037
tp1083
a(F68.468551456928253
F9.7757688015699387
F39.080846101045609
tp1084
a(F68.454835042357445
F13.154618546366692
F37.295815944671631
tp1085
a(F68.440979272127151
F16.440392360091209
F35.674512654542923
tp1086
a(F68.426915556192398
F19.721216350793839
F34.19431871175766
tp1087
a(F68.412860184907913
F23.023126438260078
F32.865214675664902
tp1088
a(F68.399064719676971
F26.371665708720684
F31.696729958057404
tp1089
a(F68.385791093111038
F29.792618483304977
F30.698060005903244
tp1090
a(F68.3730408847332
F33.383921399712563
F29.865361034870148
tp1091
a(F68.361294656991959
F37.104027949273586
F29.22170302271843
tp1092
a(F68.350960493087769
F40.867124810814857
F28.785642713308334
tp1093
a(F68.341706722974777
F44.81102663371712
F28.533213943243027
tp1094
a(F68.333450078964233
F48.994592025497695
F28.447696834802628
tp1095
a(F68.326292276382446
F53.379167624749243
F28.502247154712677
tp1096
a(F68.320282965898514
F57.955549330450594
F28.64219132065773
tp1097
a(F68.315554171800613
F62.784818311221898
F28.789667934179306
tp1098
a(F68.312587350606918
F67.779111946001649
F28.839113831520081
tp1099
a(F68.312129616737366
F72.780436122789979
F28.673719108104706
tp1100
a(F68.315104633569717
F77.789002399891615
F28.182853311300278
tp1101
a(F68.322982937097549
F82.805449597537518
F27.255362182855606
tp1102
a(F68.338081926107407
F87.830863654613495
F25.774811416864395
tp1103
a(F68.363973259925842
F92.866505458950996
F23.611152857542038
tp1104
a(F68.405636638402939
F97.912591069936752
F20.608862459659576
tp1105
a(F68.468320608139038
F102.97676250338554
F16.561094909906387
tp1106
a(F68.552961602807045
F108.05978080630302
F11.19723516702652
tp1107
a(F68.650001920759678
F113.13669744133949
F4.1974159479141235
tp1108
a(F72.822828978940379
F-64.777097374200821
F2.0860025584697723
tp1109
a(F72.821260051103309
F-63.622990548610687
F5.9827134609222412
tp1110
a(F72.819514185190201
F-62.40185084939003
F9.8660231232643127
tp1111
a(F72.817557777743787
F-61.105501800775528
F13.732897788286209
tp1112
a(F72.815346794202924
F-59.724214762449265
F17.579305365681648
tp1113
a(F72.812822767533362
F-58.246379762887955
F21.399843215942383
tp1114
a(F72.809874986298382
F-56.640980839729309
F25.224286273121834
tp1115
a(F72.80648454837501
F-54.940023452043533
F28.938300177454948
tp1116
a(F72.802452610805631
F-53.090561807155609
F32.591076135635376
tp1117
a(F72.797420075163245
F-51.010664075613022
F36.270821928977966
tp1118
a(F72.791151072829962
F-48.707128167152405
F39.85228967666626
tp1119
a(F72.783178448677063
F-46.131697326898575
F43.293303966522217
tp1120
a(F72.772875003516674
F-43.222549557685852
F46.529788553714752
tp1121
a(F72.759526312351227
F-39.903633087873459
F49.462939918041229
tp1122
a(F72.742707245051861
F-36.093740373849869
F51.942090928554535
tp1123
a(F72.722824521362782
F-31.666223928332329
F53.771536976099014
tp1124
a(F72.702953025698662
F-26.771726451814175
F54.69475656747818
tp1125
a(F72.686174914240837
F-21.757282990962267
F54.60835263133049
tp1126
a(F72.672680035233498
F-16.919084839522839
F53.711545586585999
tp1127
a(F72.661562949419022
F-12.593540161848068
F52.362398624420166
tp1128
a(F72.65093606710434
F-8.5414092242717743
F50.717550575733185
tp1129
a(F72.639695599675179
F-4.5448558926582336
F48.853689610958099
tp1130
a(F72.627951890230179
F-0.75588174164295197
F46.940934926271439
tp1131
a(F72.615696147084236
F2.8265101164579391
F45.070641189813614
tp1132
a(F72.602697595953941
F6.2952405214309692
F43.259704023599625
tp1133
a(F72.588684812188148
F9.7593304514884949
F41.501474142074585
tp1134
a(F72.57421201467514
F13.137137904763222
F39.875559657812119
tp1135
a(F72.559621423482895
F16.421800017356873
F38.414169520139694
tp1136
a(F72.544890612363815
F19.701521009206772
F37.098660618066788
tp1137
a(F72.530289053916931
F23.002451173961163
F35.940120130777359
tp1138
a(F72.516107797622681
F26.350256942212582
F34.949014365673065
tp1139
a(F72.502626419067383
F29.770843625068665
F34.13524267077446
tp1140
a(F72.489836424589157
F33.362253542989492
F33.499219655990601
tp1141
a(F72.478184401988983
F37.083011811599135
F33.059916317462921
tp1142
a(F72.468010574579239
F40.847276979126036
F32.828396052122116
tp1143
a(F72.45892134308815
F44.792847222648561
F32.784073978662491
tp1144
a(F72.450777649879456
F48.978544421494007
F32.907350778579712
tp1145
a(F72.443640410900116
F53.36562717705965
F33.161023706197739
tp1146
a(F72.437549918889999
F57.944832785055041
F33.479415655136108
tp1147
a(F72.43265825510025
F62.777274772524834
F33.77268573641777
tp1148
a(F72.429510474205017
F67.775081993546337
F33.917338341474533
tp1149
a(F72.428959786891937
F72.78024073317647
F33.778174072504044
tp1150
a(F72.432076901197433
F77.793076567351818
F33.231877058744431
tp1151
a(F72.440551042556763
F82.81433928757906
F32.153430998325348
tp1152
a(F72.457018256187439
F87.845129653811455
F30.410271912813187
tp1153
a(F72.48543655872345
F92.886400610208511
F27.852419316768646
tp1154
a(F72.53095817565918
F97.937328666448593
F24.298760324716568
tp1155
a(F72.598036304116249
F103.00357583165169
F19.507249236106873
tp1156
a(F72.685210391879082
F108.08417823910713
F13.16120445728302
tp1157
a(F72.780655384063721
F113.15540954470634
F4.8854275494813919
tp1158
a(F76.951456659473479
F-64.777500987052917
F2.1063359081745148
tp1159
a(F76.949895597761497
F-63.62343767285347
F6.0464076995849609
tp1160
a(F76.948158327955753
F-62.402349323034286
F9.9729522615671158
tp1161
a(F76.946211731527001
F-61.10606175661087
F13.882970303297043
tp1162
a(F76.944012771360576
F-59.724849909543991
F17.772507637739182
tp1163
a(F76.94150457624346
F-58.247109025716782
F21.636298552155495
tp1164
a(F76.9385797213763
F-56.641832649707794
F25.5047777146101
tp1165
a(F76.935223335400224
F-54.94103479385376
F29.262709736824036
tp1166
a(F76.93124515004456
F-53.091792047023773
F32.960562616586685
tp1167
a(F76.926301928237081
F-51.012215733528137
F36.688651502132416
tp1168
a(F76.920179713517427
F-48.709160685539246
F40.321764826774597
tp1169
a(F76.912446841597557
F-46.134474575519562
F43.819458216428757
tp1170
a(F76.902527332305908
F-43.226506173610687
F47.120182752609253
tp1171
a(F76.889762833714485
F-39.909440606832504
F50.128792434930801
tp1172
a(F76.873740032315254
F-36.102247282862663
F52.699562430381775
tp1173
a(F76.854746147990227
F-31.678012952208519
F54.644443452358246
tp1174
a(F76.835530661046505
F-26.786101438105106
F55.707306206226349
tp1175
a(F76.818985462188721
F-21.772521991282701
F55.776907533407211
tp1176
a(F76.805382415652275
F-16.933965943753719
F55.042162120342255
tp1177
a(F76.793947845697403
F-12.607800751924515
F53.847276836633682
tp1178
a(F76.782818168401718
F-8.5552340596914291
F52.355654001235962
tp1179
a(F76.770882129669189
F-4.5585673898458481
F50.651068955659866
tp1180
a(F76.758278489112854
F-0.76985643804073334
F48.89747142791748
tp1181
a(F76.745034396648407
F2.811930388212204
F47.185453534126282
tp1182
a(F76.730935350060463
F6.2797489613294601
F45.535607397556305
tp1183
a(F76.715730130672455
F9.7426453828811646
F43.946204155683517
tp1184
a(F76.700070172548294
F13.119087621569633
F42.492689341306686
tp1185
a(F76.684371173381805
F16.402328819036484
F41.206482112407684
tp1186
a(F76.668654322624207
F19.680670239031315
F40.073024094104767
tp1187
a(F76.653244197368622
F22.980400107800961
F39.104410618543625
tp1188
a(F76.638466328382492
F26.327327266335487
F38.311938136816025
tp1189
a(F76.624605029821396
F29.747485261410475
F37.706106603145599
tp1190
a(F76.611621230840683
F33.339018793776631
F37.291917771100998
tp1191
a(F76.599913030862808
F37.060507852584124
F37.083497703075409
tp1192
a(F76.58974289894104
F40.82605480030179
F37.083236873149872
tp1193
a(F76.580644100904465
F44.773424901068211
F37.27416867017746
tp1194
a(F76.572421252727509
F48.96139270812273
F37.633337497711182
tp1195
a(F76.565104752779007
F53.351128302514553
F38.111812502145767
tp1196
a(F76.558739006519318
F57.933321807533503
F38.631677478551865
tp1197
a(F76.553512215614319
F62.769139720126987
F39.090019017457962
tp1198
a(F76.55006131529808
F67.770717080216855
F39.343774378299713
tp1199
a(F76.549380838871002
F72.780018094927073
F39.237863719463348
tp1200
a(F76.552725076675415
F77.797462716698647
F38.635689407587051
tp1201
a(F76.562041401863098
F82.823846042156219
F37.39771768450737
tp1202
a(F76.580301761627197
F87.860131293535233
F35.374471187591553
tp1203
a(F76.611762285232544
F92.90667237341404
F32.394993126392365
tp1204
a(F76.661390602588654
F97.961242437362671
F28.251232266426086
tp1205
a(F76.732192978262901
F103.02754840254784
F22.664125949144363
tp1206
a(F76.820068538188934
F108.10397589206696
F15.268109634518623
tp1207
a(F76.911937311291695
F113.16931119561195
F5.6281234174966812
tp1208
a(F81.027483461948577
F-64.777856200933456
F2.1247783154249191
tp1209
a(F81.026202293229289
F-63.623832732439041
F6.104128360748291
tp1210
a(F81.024776205886155
F-62.402792930603027
F10.069837987422943
tp1211
a(F81.023177828174084
F-61.1065653860569
F14.018934905529022
tp1212
a(F81.021371538750827
F-59.725428879261017
F17.94753098487854
tp1213
a(F81.019310230389237
F-58.247784346342087
F21.850482523441315
tp1214
a(F81.016904785297811
F-56.64263528585434
F25.758814990520477
tp1215
a(F81.014141969382763
F-54.942004650831223
F29.556453719735146
tp1216
a(F81.01086338236928
F-53.092991441488266
F33.29503245651722
tp1217
a(F81.006782412528992
F-51.013749688863754
F37.066728532314301
tp1218
a(F81.001715769991279
F-48.711187809705734
F40.746346056461334
tp1219
a(F80.995292741805315
F-46.137249439954758
F44.294992417097092
tp1220
a(F80.987005900591612
F-43.230434060096741
F47.653415322303772
tp1221
a(F80.976239494979382
F-39.915127038955688
F50.729778498411179
tp1222
a(F80.962500914931297
F-36.110426247119904
F53.382959932088852
tp1223
a(F80.945745177567005
F-31.689152672886848
F55.432160139083862
tp1224
a(F80.92801908403635
F-26.799527406692505
F56.622294515371323
tp1225
a(F80.91183527559042
F-21.786677028983831
F56.835951715707779
tp1226
a(F80.897739559412003
F-16.947780437767506
F56.253474146127701
tp1227
a(F80.885401919484138
F-12.621092841029167
F55.206390470266342
tp1228
a(F80.873116672039032
F-8.5682395845651627
F53.864723682403564
tp1229
a(F80.859803974628448
F-4.5716564953327179
F52.319119304418564
tp1230
a(F80.845683872699738
F-0.78344480693340302
F50.727462440729141
tp1231
a(F80.830832630395889
F2.7974666953086853
F49.179234862327576
tp1232
a(F80.815042793750763
F6.2640696167945862
F47.698540538549423
tp1233
a(F80.798075512051582
F9.7254363596439362
F46.288591742515564
tp1234
a(F80.780704945325851
F13.100172474980354
F45.020135521888733
tp1235
a(F80.763432443141937
F16.381676197052002
F43.923458397388458
tp1236
a(F80.746320068836212
F19.658368021249771
F42.988125115633011
tp1237
a(F80.72974756360054
F22.956699907779694
F42.227095901966095
tp1238
a(F80.714067816734314
F26.302639927715063
F41.652382105588913
tp1239
a(F80.69955649971962
F29.722352176904678
F41.274911165237427
tp1240
a(F80.686121642589569
F33.314070727210492
F41.104550987482071
tp1241
a(F80.674099802970886
F37.036404918879271
F41.149874597787857
tp1242
a(F80.663673788309097
F40.803367622196674
F41.403551995754242
tp1243
a(F80.654293447732925
F44.752675380557775
F41.852448225021362
tp1244
a(F80.645708382129669
F48.943050343543291
F42.469855129718781
tp1245
a(F80.637932062149048
F53.335581161081791
F43.19406059384346
tp1246
a(F80.63102787733078
F57.920929409563541
F43.93401175737381
tp1247
a(F80.625236541032791
F62.760343097150326
F44.573041439056396
tp1248
a(F80.621319144964218
F67.765983320772648
F44.947504013776779
tp1249
a(F80.620453387498856
F72.77978752180934
F44.881588220596313
tp1250
a(F80.624119311571121
F77.802237406373024
F44.225287973880768
tp1251
a(F80.63456267118454
F82.834078505635262
F42.824433088302612
tp1252
a(F80.655083537101746
F87.875932857394218
F40.512430131435394
tp1253
a(F80.690067231655121
F92.927225604653358
F37.09703603386879
tp1254
a(F80.743828803300858
F97.984061598777771
F32.342864841222763
tp1255
a(F80.817354828119278
F103.04856437444687
F25.933210253715515
tp1256
a(F80.904100082814693
F108.11969745159149
F17.452086865901947
tp1257
a(F80.990880340337753
F113.17944806814194
F6.4017401188611984
tp1258
a(F85.117408336955123
F-64.778100550174713
F2.1377740502357483
tp1259
a(F85.116698201862164
F-63.624105632305145
F6.1447759866714478
tp1260
a(F85.1159073082963
F-62.403101921081543
F10.138060852885246
tp1261
a(F85.115019737742841
F-61.106920480728149
F14.114690080285072
tp1262
a(F85.114014351740479
F-59.725843548774719
F18.070838376879692
tp1263
a(F85.112862406764179
F-58.248277217149734
F22.001469671726227
tp1264
a(F85.111509667243809
F-56.643234044313431
F25.938069254159927
tp1265
a(F85.109942026436329
F-54.942745238542557
F29.764042317867279
tp1266
a(F85.108057525008917
F-53.093930095434189
F33.531924396753311
tp1267
a(F85.10567173641175
F-51.014981269836426
F37.335380017757416
tp1268
a(F85.102642294950783
F-48.712855905294418
F41.049438953399658
tp1269
a(F85.098690299317241
F-46.139585793018341
F44.636646091938019
tp1270
a(F85.093404302373528
F-43.233808994293213
F48.039884269237518
tp1271
a(F85.08621833473444
F-39.920101046562195
F51.170520305633545
tp1272
a(F85.076498206704855
F-36.117702692747116
F53.891962885856628
tp1273
a(F85.063681893050671
F-31.699255630373955
F56.030698031187057
tp1274
a(F85.048692911863327
F-26.8119837641716
F57.333993971347809
tp1275
a(F85.033337965607643
F-21.800123180262744
F57.680350750684738
tp1276
a(F85.018554352223873
F-16.961189225316048
F57.242794901132584
tp1277
a(F85.004794277250767
F-12.634239375591278
F56.340509474277496
tp1278
a(F84.990698248147964
F-8.5813383609056473
F55.149701714515686
tp1279
a(F84.975283250212669
F-4.5850905925035477
F53.767548561096191
tp1280
a(F84.958916485309601
F-0.79765407741069794
F52.34557831287384
tp1281
a(F84.941743522882462
F2.7820735573768616
F50.971589148044586
tp1282
a(F84.923556387424469
F6.2471122443675995
F49.673043251037598
tp1283
a(F84.904119268059731
F9.7065631300210953
F48.458117306232452
tp1284
a(F84.884363174438477
F13.079201824963093
F47.392125487327576
tp1285
a(F84.864895194768906
F16.358613081276417
F46.503799736499786
tp1286
a(F84.84581658244133
F19.633365839719772
F45.786921858787537
tp1287
a(F84.827567368745804
F22.9301095046103
F45.255169659852982
tp1288
a(F84.810523569583893
F26.274989180266857
F44.921137601137161
tp1289
a(F84.794937968254089
F29.694296006520744
F44.796011477708817
tp1290
a(F84.78064039349556
F33.286332603543997
F44.894821971654892
tp1291
a(F84.767900049686432
F37.009700786322355
F45.219803959131241
tp1292
a(F84.756822645664215
F40.77828523516655
F45.752752929925919
tp1293
a(F84.746761620044708
F44.729740135371685
F46.484645992517471
tp1294
a(F84.737412959337234
F48.922736324369907
F47.38461971282959
tp1295
a(F84.728787183761597
F53.318294890224934
F48.377101421356201
tp1296
a(F84.720980882644653
F57.907077983021736
F49.357036948204041
tp1297
a(F84.714305311441422
F62.750457543879747
F50.193370908498764
tp1298
a(F84.709688395261765
F67.760647995397449
F50.700960248708725
tp1299
a(F84.708549529314041
F72.779550787061453
F50.682522535324097
tp1300
a(F84.712653905153275
F77.807658776640892
F49.974638968706131
tp1301
a(F84.724591076374054
F82.845523335039616
F48.408535331487656
tp1302
a(F84.747945070266724
F87.893138617277145
F45.800461113452911
tp1303
a(F84.786950618028641
F92.948614567518234
F41.936773419380188
tp1304
a(F84.844681203365326
F98.006244868040085
F36.554629772901535
tp1305
a(F84.9196667522192
F103.06725257635117
F29.299211725592613
tp1306
a(F85.003474444150925
F108.13236755132675
F19.702624410390854
tp1307
a(F85.08389688283205
F113.18696853518486
F7.2018759399652481
tp1308
a(F89.222220548137557
F-64.77816903591156
F2.1414606720209122
tp1309
a(F89.222383492189692
F-63.624182462692261
F6.1563055962324142
tp1310
a(F89.222563954652287
F-62.403189837932587
F10.157428398728371
tp1311
a(F89.222763453260995
F-61.107023328542709
F14.141925483942032
tp1312
a(F89.222982533508912
F-59.725966960191727
F18.106040626764297
tp1313
a(F89.223219801904634
F-58.24842968583107
F22.044851675629616
tp1314
a(F89.223472689278424
F-56.643428981304169
F25.990110978484154
tp1315
a(F89.223723738337867
F-54.943002223968506
F29.825221747159958
tp1316
a(F89.223953041131608
F-53.094281941652298
F33.60328009724617
tp1317
a(F89.224124814150855
F-51.015487521886826
F37.418851494789124
tp1318
a(F89.224148424109444
F-48.713616132736206
F41.147639840841293
tp1319
a(F89.223869348177686
F-46.140775054693222
F44.753558337688446
tp1320
a(F89.223006133397575
F-43.235733985900879
F48.18157297372818
tp1321
a(F89.221061759162694
F-39.923277288675308
F51.34620526432991
tp1322
a(F89.217229626141489
F-36.122888803482056
F54.115557014942169
tp1323
a(F89.210302224382758
F-31.707266584038734
F56.323798269033432
tp1324
a(F89.199683954939246
F-26.822885148227215
F57.722581565380096
tp1325
a(F89.186073772609234
F-21.812916200142354
F58.188866794109344
tp1326
a(F89.1708002127707
F-16.974788919091225
F57.889303207397461
tp1327
a(F89.155381605029106
F-12.648166984319687
F57.130250096321106
tp1328
a(F89.139028519392014
F-8.5956371426582336
F56.093151241540909
tp1329
a(F89.120942033827305
F-4.6000654697418213
F54.881123095750809
tp1330
a(F89.101701639592648
F-0.81371168792247772
F53.638718605041504
tp1331
a(F89.081544235348701
F2.7645187973976135
F52.451335102319717
tp1332
a(F89.060255080461502
F6.2276526689529419
F51.349532335996628
tp1333
a(F89.037590175867081
F9.6848140582442284
F50.34644678235054
tp1334
a(F89.014675170183182
F13.054986767470837
F49.501125425100327
tp1335
a(F88.992252200841904
F16.331986218690872
F48.840263426303864
tp1336
a(F88.970469057559967
F19.604568801820278
F48.36196032166481
tp1337
a(F88.949840158224106
F22.899614758789539
F48.080454915761948
tp1338
a(F88.930767625570297
F26.243458006996661
F48.008762300014496
tp1339
a(F88.913475692272186
F29.662497552111745
F48.158177703619003
tp1340
a(F88.897694498300552
F33.255073942244053
F48.549110621213913
tp1341
a(F88.88363054394722
F36.979732431471348
F49.176751613616943
tp1342
a(F88.871327370405197
F40.750187747180462
F50.010969787836075
tp1343
a(F88.860024452209473
F44.704026967287064
F51.047131538391113
tp1344
a(F88.849362522363663
F48.899882532656193
F52.249938786029816
tp1345
a(F88.839362561702728
F53.2987340092659
F53.529105424880981
tp1346
a(F88.830166310071945
F57.891291104257107
F54.765055596828461
tp1347
a(F88.822173804044724
F62.7391113974154
F55.812080472707748
tp1348
a(F88.816534876823425
F67.754504185169935
F56.463141143321991
tp1349
a(F88.81499245762825
F72.779318999499083
F56.499238848686218
tp1350
a(F88.819674640893936
F77.813971728086472
F55.743961334228516
tp1351
a(F88.833554208278656
F82.858589321374893
F54.014355778694153
tp1352
a(F88.860375761985779
F87.912136748433113
F51.109946876764297
tp1353
a(F88.903775691986084
F92.97099956870079
F46.796274483203888
tp1354
a(F88.964919030666351
F98.027774751186371
F40.783742219209671
tp1355
a(F89.039745554327965
F103.08380451798439
F32.679849177598953
tp1356
a(F89.118849478662014
F108.14256390929222
F21.964376986026764
tp1357
a(F89.191887840628624
F113.19255256652832
F8.0082302391529083
tp1358
a(F93.416364006756339
F-64.777969807386398
F2.1307961940765381
tp1359
a(F93.417743394616991
F-63.623958379030228
F6.1229649931192398
tp1360
a(F93.419276933651417
F-62.402933090925217
F10.101513534784317
tp1361
a(F93.420990009792149
F-61.106724232435226
F14.063589617609978
tp1362
a(F93.422912683337927
F-59.725613594055176
F18.005518704652786
tp1363
a(F93.425080446526408
F-58.248007655143738
F21.922506600618362
tp1364
a(F93.427560493350029
F-56.642920523881912
F25.846294596791267
tp1365
a(F93.430327309295535
F-54.942390322685242
F29.661117985844612
tp1366
a(F93.43346924521029
F-53.09354892373085
F33.420154765248299
tp1367
a(F93.437146287411451
F-51.014618366956711
F37.21799910068512
tp1368
a(F93.441324312239885
F-48.712621033191681
F40.931808233261108
tp1369
a(F93.445998063310981
F-46.13972133398056
F44.526865065097809
tp1370
a(F93.451034478843212
F-43.234820902347565
F47.950261801481247
tp1371
a(F93.456004988402128
F-39.922975271940231
F51.119815409183502
tp1372
a(F93.459892679005861
F-36.124123692512512
F53.908800631761551
tp1373
a(F93.460773061960936
F-31.711467176675797
F56.159984946250916
tp1374
a(F93.45630082860589
F-26.831143751740456
F57.632483601570129
tp1375
a(F93.445780476555228
F-21.824911936186254
F58.205077052116394
tp1376
a(F93.430831698700786
F-16.989318840205669
F58.038599997758865
tp1377
a(F93.41413326584734
F-12.664220348000526
F57.424970269203186
tp1378
a(F93.395646354183555
F-8.6128617525100708
F56.549312382936478
tp1379
a(F93.374838829040527
F-4.6185365170240402
F55.519793152809143
tp1380
a(F93.352530099451542
F-0.83369317650794983
F54.472874224185944
tp1381
a(F93.329057313501835
F2.7426715195178986
F53.490524500608444
tp1382
a(F93.30418799072504
F6.2035406529903412
F52.606087416410446
tp1383
a(F93.277650088071823
F9.658042773604393
F51.837672084569931
tp1384
a(F93.25079408288002
F13.025406166911125
F51.236937671899796
tp1385
a(F93.224540531635284
F16.299724951386452
F50.827946990728378
tp1386
a(F93.199109002947807
F19.569985263980925
F50.613272994756699
tp1387
a(F93.175125673413277
F22.863330266438425
F50.607551366090775
tp1388
a(F93.153047323226929
F26.20628023520112
F50.824021816253662
tp1389
a(F93.133087784051895
F29.625309698283672
F51.273915767669678
tp1390
a(F93.114870309829712
F33.218749664723873
F51.983271986246109
tp1391
a(F93.09856453537941
F36.945031933486462
F52.939416617155075
tp1392
a(F93.084181427955627
F40.717662379145622
F54.099179118871689
tp1393
a(F93.070820420980453
F44.674168318510056
F55.462648153305054
tp1394
a(F93.058057457208633
F48.873173117637634
F56.989837318658829
tp1395
a(F93.045933067798615
F53.275664962828159
F58.574970126152039
tp1396
a(F93.034641891717911
F57.872475750744343
F60.083492428064346
tp1397
a(F93.024693012237549
F62.725449167191982
F61.355004131793976
tp1398
a(F93.01754030585289
F67.747060967609286
F62.160362273454666
tp1399
a(F93.015379697084427
F72.779077809303999
F62.258869498968124
tp1400
a(F93.020820260047913
F77.821671769022942
F61.461783826351166
tp1401
a(F93.037238419055939
F82.874141573905945
F59.572650879621506
tp1402
a(F93.068258792161942
F87.933817431330681
F56.375126838684082
tp1403
a(F93.1162109375
F92.994956433773041
F51.615034997463226
tp1404
a(F93.179658561944962
F98.04897078871727
F44.977321967482567
tp1405
a(F93.252234786748886
F103.09865021705627
F36.032658353447914
tp1406
a(F93.324733301997185
F108.15089681744576
F24.208592116832733
tp1407
a(F93.389322973787785
F113.19676506519318
F8.8099934458732605
tp1408
a(F97.846572806476615
F-64.77736634016037
F2.0995499342679977
tp1409
a(F97.849605762399733
F-63.623276770114899
F6.0251791924238205
tp1410
a(F97.852976989932358
F-62.402145206928253
F9.9374466687440872
tp1411
a(F97.856743020936847
F-61.105794340372086
F13.833575159311295
tp1412
a(F97.860971888527274
F-59.724496096372604
F17.709997817873955
tp1413
a(F97.865745518356562
F-58.246644496917725
F21.562078073620796
tp1414
a(F97.871219661086798
F-56.641234427690506
F25.421154588460922
tp1415
a(F97.877349730581045
F-54.940295726060867
F29.173532605171204
tp1416
a(F97.884355127811432
F-53.090935319662094
F32.871785819530487
tp1417
a(F97.892632443457842
F-51.011337161064148
F36.609367579221725
tp1418
a(F97.902183197438717
F-48.708530068397522
F40.26605436205864
tp1419
a(F97.913135290145874
F-46.13471907377243
F43.808615982532501
tp1420
a(F97.92545672506094
F-43.228964358568192
F47.186443388462067
tp1421
a(F97.938696511089802
F-39.916734963655472
F50.321102470159531
tp1422
a(F97.951510213315487
F-36.118796497583389
F53.091986656188965
tp1423
a(F97.961246490478516
F-31.709506496787071
F55.352177381515503
tp1424
a(F97.96400873363018
F-26.835175417363644
F56.872525334358215
tp1425
a(F97.957933746278286
F-21.835617547854781
F57.537743896245956
tp1426
a(F97.944843851029873
F-17.005385600030422
F57.502945870161057
tp1427
a(F97.928295508027077
F-12.683866783976555
F57.042617678642273
tp1428
a(F97.908985204994678
F-8.6351054534316063
F56.343383312225342
tp1429
a(F97.886653557419777
F-4.6430357173085213
F55.517270296812057
tp1430
a(F97.862267624586821
F-0.8603920191526413
F54.690820664167404
tp1431
a(F97.836213869974017
F2.7136104479432106
F53.941182464361191
tp1432
a(F97.808204434812069
F6.1718248650431633
F53.30413943529129
tp1433
a(F97.777885563671589
F9.6233448125422001
F52.802847594022751
tp1434
a(F97.746793448925018
F12.987656712532043
F52.480037569999695
tp1435
a(F97.716060057282448
F16.259166062343866
F52.356374233961105
tp1436
a(F97.68602842092514
F19.527115175500512
F52.439166903495789
tp1437
a(F97.657514020800591
F22.818919833749533
F52.743153065443039
tp1438
a(F97.631113797426224
F26.161262936890125
F53.28162693977356
tp1439
a(F97.607108637690544
F29.58063967525959
F54.065484136343002
tp1440
a(F97.585049033164978
F33.175316199660301
F55.126729816198349
tp1441
a(F97.565139323472977
F36.903556346893311
F56.443828016519547
tp1442
a(F97.547419399023056
F40.678633734583855
F57.959203213453293
tp1443
a(F97.53080952167511
F44.638047084212303
F59.678191184997559
tp1444
a(F97.514799654483795
F48.84046795964241
F61.55587974190712
tp1445
a(F97.499448120594025
F53.246986702084541
F63.470122933387756
tp1446
a(F97.484998255968094
F57.848692215979099
F65.270987451076508
tp1447
a(F97.472089946269989
F62.707899153232574
F66.783393800258636
tp1448
a(F97.462614566087723
F67.737396646291018
F67.755929678678513
tp1449
a(F97.459451943635941
F72.778808621689677
F67.926264077425003
tp1450
a(F97.465886831283569
F77.831704244017601
F67.094079375267029
tp1451
a(F97.485646724700928
F82.893750503659248
F65.05033278465271
tp1452
a(F97.521604031324387
F87.959666579961777
F61.5640769302845
tp1453
a(F97.573674201965332
F93.021345466375351
F56.363253742456436
tp1454
a(F97.637290701270103
F98.070238262414932
F49.109144121408463
tp1455
a(F97.704706072807312
F103.11220249533653
F39.336499497294426
tp1456
a(F97.768270298838615
F108.1578508913517
F26.420845359563828
tp1457
a(F97.823039177805185
F113.20000955462456
F9.6015819758176804
tp1458
a(F102.45477887173183
F-64.776146560907364
F2.0407894402742386
tp1459
a(F102.45996512332931
F-63.621894538402557
F5.8409059345722198
tp1460
a(F102.46572456788272
F-62.400537073612213
F9.62812440097332
tp1461
a(F102.4721505921334
F-61.103879183530807
F13.399774640798569
tp1462
a(F102.47935458645225
F-59.722170203924179
F17.152437701821327
tp1463
a(F102.48746941611171
F-58.243775397539139
F20.881672009825706
tp1464
a(F102.49674946069717
F-56.637645721435547
F24.617893770337105
tp1465
a(F102.5071041174233
F-54.935790598392487
F28.25112096965313
tp1466
a(F102.51888433098793
F-53.085258662700653
F31.832433700561523
tp1467
a(F102.53271946310997
F-51.004142791032791
F35.452566653490067
tp1468
a(F102.54855828732252
F-48.699473768472672
F38.995484888553619
tp1469
a(F102.56654514372349
F-46.123514503240585
F42.429617613554001
tp1470
a(F102.58655980229378
F-43.215588271617889
F45.707010686397552
tp1471
a(F102.60788054764271
F-39.901846885681152
F48.75365224480629
tp1472
a(F102.62865868210793
F-36.104369327425957
F51.456547856330872
tp1473
a(F102.6457100212574
F-31.699263617396355
F53.681322276592255
tp1474
a(F102.65451036393642
F-26.833230957388878
F55.215434670448303
tp1475
a(F102.65302415192127
F-21.843532033264637
F55.95366433262825
tp1476
a(F102.64330938458443
F-17.021825708448887
F56.044938772916794
tp1477
a(F102.62913136184216
F-12.706388138234615
F55.742958277463913
tp1478
a(F102.61159680783749
F-8.6621127054095268
F55.232911437749863
tp1479
a(F102.59060713648796
F-4.673705630004406
F54.629015058279037
tp1480
a(F102.56702968478203
F-0.89418677985668182
F54.045830994844437
tp1481
a(F102.54115349799395
F2.6769178844988346
F53.554094135761261
tp1482
a(F102.51255675405264
F6.1322475932538509
F53.191530913114548
tp1483
a(F102.4806908685714
F9.5808053128421307
F52.986281096935272
tp1484
a(F102.447038941551
F12.942285306751728
F52.970684200525284
tp1485
a(F102.41284235939384
F16.211340315639973
F53.161123484373093
tp1486
a(F102.3785672262311
F19.477406732738018
F53.56972000002861
tp1487
a(F102.34527211636305
F22.768101707100868
F54.210893303155899
tp1488
a(F102.31381615996361
F26.110198855400085
F55.097540467977524
tp1489
a(F102.28470268845558
F29.530152827501297
F56.239844113588333
tp1490
a(F102.25753831863403
F33.126131951808929
F57.675822615623474
tp1491
a(F102.23270434141159
F36.856226354837418
F59.37427169084549
tp1492
a(F102.21038882434368
F40.633517324924469
F61.262406319379807
tp1493
a(F102.18932172656059
F44.59553462266922
F63.351271897554398
tp1494
a(F102.16888228058815
F48.801092922687531
F65.591147005558014
tp1495
a(F102.14912405610085
F53.211542904376984
F67.843540251255035
tp1496
a(F102.13029992580414
F57.818462491035461
F69.943708568811417
tp1497
a(F102.11317601799965
F62.684976145625114
F71.702932327985764
tp1498
a(F102.1002536714077
F67.724506363272667
F72.848747551441193
tp1499
a(F102.09546023607254
F72.778448345139623
F73.098436504602432
tp1500
a(F102.10302519798279
F77.844976395368576
F72.241618007421494
tp1501
a(F102.12670356035233
F82.918546602129936
F70.058716356754303
tp1502
a(F102.16734951734543
F87.989958137273788
F66.307468235492706
tp1503
a(F102.22119210660458
F93.049378454685211
F60.702127903699875
tp1504
a(F102.28095263242722
F98.090616166591644
F52.884062513709068
tp1505
a(F102.33932761102915
F103.12402027845383
F42.355163469910622
tp1506
a(F102.39139627292752
F108.16341683268547
F28.442691743373871
tp1507
a(F102.4349488504231
F113.20240324735641
F10.325886584818363
tp1508
a(F107.29325156565756
F-64.773919075727463
F1.9462964087724686
tp1509
a(F107.30123591516167
F-63.619365483522415
F5.5434227883815765
tp1510
a(F107.3100864700973
F-62.397582143545151
F9.1283836513757706
tp1511
a(F107.31993481144309
F-61.100340336561203
F12.698653325438499
tp1512
a(F107.33093371987343
F-59.717847317457199
F16.251004740595818
tp1513
a(F107.34325877577066
F-58.238416314125061
F19.781245082616806
tp1514
a(F107.35725323110819
F-56.630921214818954
F23.318195983767509
tp1515
a(F107.37271915376186
F-54.927345126867294
F26.757750064134598
tp1516
a(F107.39009296149015
F-53.074648946523666
F30.148339062929153
tp1517
a(F107.41015169024467
F-50.990797966718674
F33.575918585062027
tp1518
a(F107.43259677290916
F-48.68289190530777
F36.930804491043091
tp1519
a(F107.45734058320522
F-46.103385239839554
F40.18345120549202
tp1520
a(F107.48386776447296
F-43.192138731479645
F43.289244800806046
tp1521
a(F107.51092466711998
F-39.876403719186783
F46.179963022470474
tp1522
a(F107.53619128465652
F-36.079974815249443
F48.752628535032272
tp1523
a(F107.55654111504555
F-31.680766001343727
F50.888428896665573
tp1524
a(F107.56814596056938
F-26.825343631207943
F52.396586984395981
tp1525
a(F107.56984287500381
F-21.847865056246519
F53.185351252555847
tp1526
a(F107.56388863921165
F-17.036923267412931
F53.395942091941833
tp1527
a(F107.55360972881317
F-12.729480737820268
F53.257159292697906
tp1528
a(F107.54013088345528
F-8.6912801899015903
F52.949301570653915
tp1529
a(F107.52340807020664
F-4.7077868171036243
F52.586616605520248
tp1530
a(F107.50401647388935
F-0.93217087909579277
F52.269296407699585
tp1531
a(F107.48204143345356
F2.635756466537714
F52.059916704893112
tp1532
a(F107.45691433548927
F6.0884091920452192
F51.997538626194
tp1533
a(F107.42785792052746
F9.5346704144030809
F52.115245461463928
tp1534
a(F107.39594266563654
F12.894308768212795
F52.433658748865128
tp1535
a(F107.36220701038837
F16.162008367478848
F52.964148908853531
tp1536
a(F107.32705920189619
F19.427187696099281
F53.723594516515732
tp1537
a(F107.29162748716772
F22.717460855841637
F54.725498110055923
tp1538
a(F107.25699021667242
F26.059558227658272
F55.981676250696182
tp1539
a(F107.22395765781403
F29.47985814511776
F57.500930428504944
tp1540
a(F107.19236735999584
F33.076452165842056
F59.326968491077423
tp1541
a(F107.16293534636497
F36.807345420122147
F61.418212801218033
tp1542
a(F107.1361680328846
F40.58556717634201
F63.686252236366272
tp1543
a(F107.11071813106537
F44.548747256398201
F66.148319184780121
tp1544
a(F107.08587765693665
F48.755953148007393
F68.750366032123566
tp1545
a(F107.06164257228374
F53.169024452567101
F71.338470965623856
tp1546
a(F107.03815403580666
F57.780412659049034
F73.734634459018707
tp1547
a(F107.01617109775543
F62.654704615473747
F75.73859503865242
tp1548
a(F106.99883869290352
F67.706757329404354
F77.059068292379379
tp1549
a(F106.99151793122292
F72.777748022228479
F77.394743084907532
tp1550
a(F106.9996041059494
F77.86266752332449
F76.526924669742584
tp1551
a(F107.02593341469765
F82.949597388505936
F74.229160368442535
tp1552
a(F107.06747753918171
F88.024186134338379
F70.254308104515076
tp1553
a(F107.1165483891964
F93.077539801597595
F64.309755742549896
tp1554
a(F107.16544818878174
F98.108983546495438
F56.021847575902939
tp1555
a(F107.20951584726572
F103.13376140594482
F44.864371180534363
tp1556
a(F107.24691540747881
F108.16765490174294
F30.123616382479668
tp1557
a(F107.27743199001998
F113.20408129692078
F10.928557530045509
tp1558
a(F112.21766321919858
F-64.770142585039139
F1.8149606138467789
tp1559
a(F112.22915899008512
F-63.615077197551727
F5.1271765530109406
tp1560
a(F112.24186067283154
F-62.39256489276886
F8.4282212555408478
tp1561
a(F112.25592643767595
F-61.094322800636292
F11.715751275420189
tp1562
a(F112.27152839303017
F-59.710493534803391
F14.986771032214165
tp1563
a(F112.28884679824114
F-58.229317188262939
F18.237388387322426
tp1564
a(F112.30825886875391
F-56.619565576314926
F21.494088307023048
tp1565
a(F112.32934774458408
F-54.913223952054977
F24.660955965518951
tp1566
a(F112.35251550376415
F-53.057184159755707
F27.782520622014999
tp1567
a(F112.37849089503288
F-50.969337493181229
F30.937848627567291
tp1568
a(F112.40647631883621
F-48.657067388296127
F34.025983452796936
tp1569
a(F112.43590672314167
F-46.073318243026733
F37.019986748695374
tp1570
a(F112.46572956442833
F-43.158856004476547
F39.879644274711609
tp1571
a(F112.49429163336754
F-39.842283710837364
F42.544256716966629
tp1572
a(F112.51935136318207
F-36.048907890915871
F44.923420965671539
tp1573
a(F112.5386321246624
F-31.657634943723679
F46.916338920593262
tp1574
a(F112.54979014396667
F-26.813947923481464
F48.357879817485809
tp1575
a(F112.55271589756012
F-21.848936583846807
F49.171954721212387
tp1576
a(F112.54957616329193
F-17.048793011344969
F49.490072935819626
tp1577
a(F112.54295045137405
F-12.749467498157173
F49.512402802705765
tp1578
a(F112.53375962376595
F-8.7174948938190937
F49.410627961158752
tp1579
a(F112.52197721600533
F-4.7389512378722429
F49.29647570848465
tp1580
a(F112.5079154074192
F-0.96698415958962869
F49.253730297088623
tp1581
a(F112.49153062701225
F2.5984261631965637
F49.335249811410904
tp1582
a(F112.47226282954216
F6.0495421513915062
F49.580609500408173
tp1583
a(F112.44931593537331
F9.4951587095856667
F50.027351945638657
tp1584
a(F112.42331738770008
F12.854948557913303
F50.683842658996582
tp1585
a(F112.39494970440865
F16.123348906636238
F51.556157618761063
tp1586
a(F112.364407107234
F19.389488160610199
F52.665780335664749
tp1587
a(F112.33257082104683
F22.680681526660919
F54.0248743891716
tp1588
a(F112.30042044818401
F26.023419469594955
F55.643627882003784
tp1589
a(F112.26884520798922
F29.443937659263611
F57.528857260942459
tp1590
a(F112.23792349733412
F33.040277451276779
F59.729017645120621
tp1591
a(F112.20864033210091
F36.770464390516281
F62.192185938358307
tp1592
a(F112.18184596113861
F40.547654956579208
F64.815101534128189
tp1593
a(F112.15644954890013
F44.509608745574951
F67.621172845363617
tp1594
a(F112.13186176866293
F48.715661197900772
F70.553062707185745
tp1595
a(F112.10804054886103
F53.128253012895584
F73.444034159183502
tp1596
a(F112.08485874533653
F57.741004168987274
F76.106252163648605
tp1597
a(F112.06260477006435
F62.620710775256157
F78.331748336553574
tp1598
a(F112.04396361112595
F67.685136869549751
F79.814848512411118
tp1599
a(F112.03440679609776
F72.775948277674615
F80.238269418478012
tp1600
a(F112.03925678133965
F77.882304504513741
F79.3765589594841
tp1601
a(F112.05927357077599
F82.981711596250534
F77.00280237197876
tp1602
a(F112.08849371224642
F88.055541574954987
F72.875666528940201
tp1603
a(F112.11938004940748
F93.100364148616791
F66.703661918640137
tp1604
a(F112.147416010499
F98.122463375329971
F58.103437349200249
tp1605
a(F112.17114686220884
F103.14039543271065
F46.528999522328377
tp1606
a(F112.19057834334671
F108.17035681009293
F31.2388826161623
tp1607
a(F112.2061666790396
F113.20507192611694
F11.328631013631821
tp1608
a(F116.8877646913752
F-64.764223605394363
F1.6586652398109436
tp1609
a(F116.90335346572101
F-63.608374983072281
F4.6264854818582535
tp1610
a(F116.92048979923129
F-62.384750723838806
F7.584280401468277
tp1611
a(F116.93932335451245
F-61.084997922182083
F10.529902055859566
tp1612
a(F116.95999166369438
F-59.699185848236084
F13.460595935583115
tp1613
a(F116.98260142654181
F-58.215486347675323
F16.372789636254311
tp1614
a(F117.00745472311974
F-56.602591186761856
F19.290087297558784
tp1615
a(F117.03378188610077
F-54.892587006092072
F22.126441806554794
tp1616
a(F117.06179989874363
F-53.032411098480225
F24.921632796525955
tp1617
a(F117.09198555350304
F-50.940070152282715
F27.746348679065704
tp1618
a(F117.1229610145092
F-48.623527824878693
F30.510248750448227
tp1619
a(F117.15374317765236
F-46.03647717833519
F33.189639836549759
tp1620
a(F117.18304815888405
F-43.12066188454628
F35.749621421098709
tp1621
a(F117.20937445759773
F-39.805700913071632
F38.138136357069016
tp1622
a(F117.23116168379784
F-36.017564982175827
F40.278542399406433
tp1623
a(F117.24723452329636
F-31.635137476027012
F42.088565438985825
tp1624
a(F117.25651690363884
F-26.802384443581104
F43.430147707462311
tp1625
a(F117.25946199893951
F-21.84805066883564
F44.24369490146637
tp1626
a(F117.25788632035255
F-17.056866459548473
F44.649537116289139
tp1627
a(F117.25367018580437
F-12.764202028512955
F44.817567676305771
tp1628
a(F117.24749946594238
F-8.737249881029129
F44.907626867294312
tp1629
a(F117.23935109376907
F-4.7625004881992936
F45.026466608047485
tp1630
a(F117.22939699888229
F-0.99298911727964878
F45.240754395723343
tp1631
a(F117.21758109331131
F2.571229487657547
F45.59290537238121
tp1632
a(F117.20348474383354
F6.0223426446318626
F46.121931076049805
tp1633
a(F117.18650269508362
F9.4691106230020523
F46.868691712617874
tp1634
a(F117.16707316040993
F12.831015206873417
F47.829762816429138
tp1635
a(F117.14568704366684
F16.102135047316551
F49.006060719490051
tp1636
a(F117.12244865298271
F19.371229514479637
F50.423008948564529
tp1637
a(F117.09798918664455
F22.665193140506744
F52.091275900602341
tp1638
a(F117.07306189835072
F26.010163813829422
F54.019304722547531
tp1639
a(F117.04843290150166
F29.432155728340149
F56.211852967739105
tp1640
a(F117.02434442937374
F33.029137670993805
F58.720720529556274
tp1641
a(F117.00182335823774
F36.759127676486969
F61.485099792480469
tp1642
a(F116.98186126351357
F40.535426110029221
F64.389555841684341
tp1643
a(F116.96398360282183
F44.495920807123184
F67.462651342153549
tp1644
a(F116.94812285155058
F48.700087040662766
F70.645008355379105
tp1645
a(F116.93452390283346
F53.110674411058426
F73.761196553707123
tp1646
a(F116.92310090735555
F57.721925169229507
F76.618180125951767
tp1647
a(F116.91353855282068
F62.601982444524765
F79.005778312683105
tp1648
a(F116.90561152808368
F67.670970804989338
F80.612321645021439
tp1649
a(F116.89916323125362
F72.771863034926355
F81.113167494535446
tp1650
a(F116.89388822671026
F77.890008553862572
F80.281694561243057
tp1651
a(F116.88979714829475
F82.995536118745804
F77.896023154258728
tp1652
a(F116.88686884474009
F88.068278074264526
F73.724723160266876
tp1653
a(F116.88484146306291
F93.108988076448441
F67.48126894235611
tp1654
a(F116.88339525368065
F98.127269059419632
F58.780545383691788
tp1655
a(F116.88230520428624
F103.14265888929367
F47.070780470967293
tp1656
a(F116.88145130267367
F108.17124035954475
F31.601934283971786
tp1657
a(F116.88077500995132
F113.20537757873535
F11.458900690078735
tp1658
a(F121.0735399806872
F-64.755569130182266
F1.4961523711681366
tp1659
a(F121.09357654862106
F-63.598637133836746
F4.0975023806095123
tp1660
a(F121.11544249951839
F-62.373498469591141
F6.689950630068779
tp1661
a(F121.13921926915646
F-61.071734815835953
F9.2715270221233368
tp1662
a(F121.16492946445942
F-59.683365821838379
F11.839705184102058
tp1663
a(F121.19250616431236
F-58.196549952030182
F14.391218602657318
tp1664
a(F121.22205485403538
F-56.579991281032562
F16.946599721908569
tp1665
a(F121.25237809121609
F-54.866035878658295
F19.430341839790344
tp1666
a(F121.2834442704916
F-53.001836180686951
F21.87723308801651
tp1667
a(F121.31544283032417
F-50.905726313591003
F24.349141389131546
tp1668
a(F121.34664154052734
F-48.586379170417786
F26.767231434583664
tp1669
a(F121.37599429488182
F-45.998169511556625
F29.111383646726608
tp1670
a(F121.40244147181511
F-43.083453506231308
F31.352249711751938
tp1671
a(F121.42501658201218
F-39.772208333015442
F33.446412682533264
tp1672
a(F121.44293043017387
F-35.990326687693596
F35.330553352832794
tp1673
a(F121.4557968378067
F-31.616210035979748
F36.939758449792862
tp1674
a(F121.46323907375336
F-26.792514279484749
F38.162252634763718
tp1675
a(F121.46584382653236
F-21.846468463540077
F38.954383164644241
tp1676
a(F121.46503585577011
F-17.062021303921938
F39.424746185541153
tp1677
a(F121.46218594908714
F-12.77425348572433
F39.713691860437393
tp1678
a(F121.45780238509178
F-8.7508598677814007
F39.96734431385994
tp1679
a(F121.45186501741409
F-4.7785917073488235
F40.28572416305542
tp1680
a(F121.44449481368065
F-1.0103654786944389
F40.719194084405899
tp1681
a(F121.43567696213722
F2.5537213869392872
F41.300017595291138
tp1682
a(F121.42515191435814
F6.0058163553476334
F42.065793186426163
tp1683
a(F121.41253671050072
F9.4546696320176125
F43.059219926595688
tp1684
a(F121.39823424816132
F12.819561004638672
F44.266503125429153
tp1685
a(F121.38267892599106
F16.094255313277245
F45.683917373418808
tp1686
a(F121.36600187420845
F19.367238506674767
F47.339676141738892
tp1687
a(F121.34871569275856
F22.665072858333588
F49.242894619703293
tp1688
a(F121.33142980933189
F26.013609558343887
F51.400348514318466
tp1689
a(F121.31479400396347
F29.43867090344429
F53.814904779195786
tp1690
a(F121.29918007552624
F33.038188368082047
F56.540181338787079
tp1691
a(F121.2855284512043
F36.7701276242733
F59.508793532848358
tp1692
a(F121.27474898099899
F40.547841042280197
F62.596935153007507
tp1693
a(F121.26692761480808
F44.509377986192703
F65.836720198392868
tp1694
a(F121.2624823898077
F48.714267611503601
F69.167691200971603
tp1695
a(F121.2618914693594
F53.125157713890076
F72.409841328859329
tp1696
a(F121.26515306532383
F57.735874503850937
F75.368940532207489
tp1697
a(F121.2715030759573
F62.613453015685081
F77.836853474378586
tp1698
a(F121.27792246639729
F67.67617704719305
F79.505623608827591
tp1699
a(F121.27838812768459
F72.766473166644573
F80.059034615755081
tp1700
a(F121.26629644632339
F77.873927623033524
F79.282990455627441
tp1701
a(F121.24001459777355
F82.975530236959457
F76.961179435253143
tp1702
a(F121.20531211793423
F88.051606684923172
F72.862204521894455
tp1703
a(F121.16977854073048
F93.098137974739075
F66.703289449214935
tp1704
a(F121.13787840306759
F98.121353328227997
F58.107708901166916
tp1705
a(F121.11094887927175
F103.13993820548058
F46.533779740333557
tp1706
a(F121.08888941444457
F108.17022857069969
F31.242354735732079
tp1707
a(F121.07117853267118
F113.20506379008293
F11.329898446798325
tp1708
a(F124.7801059614867
F-64.743253409862518
F1.3395977914333344
tp1709
a(F124.80480050295591
F-63.584919214248657
F3.576299250125885
tp1710
a(F124.83148678392172
F-62.357877850532532
F5.805071547627449
tp1711
a(F124.86010122299194
F-61.053680658340454
F8.0240936577320099
tp1712
a(F124.89046335965395
F-59.662364035844803
F10.231049984693527
tp1713
a(F124.92224738001823
F-58.172175943851471
F12.422994315624237
tp1714
a(F124.95529046654701
F-56.551972150802612
F14.617433935403824
tp1715
a(F124.98801153898239
F-54.834502428770065
F16.749480962753296
tp1716
a(F125.02021083235741
F-52.967247992753983
F18.849078923463821
tp1717
a(F125.051937520504
F-50.868947595357895
F20.96947780251503
tp1718
a(F125.0814611017704
F-48.548836767673492
F23.04342383146286
tp1719
a(F125.1079968214035
F-45.961650595068932
F25.054339498281479
tp1720
a(F125.13092800974846
F-43.04989667236805
F26.978142291307449
tp1721
a(F125.14983239769936
F-39.743443161249161
F28.779424130916595
tp1722
a(F125.16446399688721
F-35.967813022434711
F30.407129406929016
tp1723
a(F125.17484876513481
F-31.600919529795647
F31.812048882246017
tp1724
a(F125.18091168999672
F-26.784477937966585
F32.906839787960052
tp1725
a(F125.18318751454353
F-21.844773396849632
F33.662444949150085
tp1726
a(F125.18277898430824
F-17.065340360626578
F34.175647258758545
tp1727
a(F125.18071803450584
F-12.781117483973503
F34.559222131967545
tp1728
a(F125.17740148305893
F-8.7601785529404879
F34.944640308618546
tp1729
a(F125.17282277345657
F-4.7894415520131588
F35.424131155014038
tp1730
a(F125.16709834337234
F-1.0217285975813866
F36.033260613679886
tp1731
a(F125.16026690602303
F2.5428224578499794
F36.795005291700363
tp1732
a(F125.15220004320145
F5.9963252767920494
F37.744884669780731
tp1733
a(F125.14269438385963
F9.447524257004261
F38.926210463047028
tp1734
a(F125.13214981555939
F12.81551156938076
F40.316591680049896
tp1735
a(F125.12097412347794
F16.09380604326725
F41.908349454402924
tp1736
a(F125.10933864116669
F19.370721384882927
F43.731394946575165
tp1737
a(F125.09768795967102
F22.672598496079445
F45.793325245380402
tp1738
a(F125.08653211593628
F26.025100275874138
F48.099302142858505
tp1739
a(F125.07641658186913
F29.453921213746071
F50.650575459003448
tp1740
a(F125.06776392459869
F33.057001411914825
F53.501164555549622
tp1741
a(F125.0613314807415
F36.792228519916534
F56.579499512910843
tp1742
a(F125.05778035521507
F40.572904855012894
F59.757269263267517
tp1743
a(F125.0573924779892
F44.537191450595856
F63.06873682141304
tp1744
a(F125.06060135364532
F48.744523555040359
F66.45354351401329
tp1745
a(F125.06760638952255
F53.157087326049805
F69.731370985507965
tp1746
a(F125.07801067829132
F57.767641142010689
F72.710804641246796
tp1747
a(F125.09054267406464
F62.64097560942173
F75.189795583486557
tp1748
a(F125.10157862305641
F67.692099712789059
F76.870891958475113
tp1749
a(F125.10507896542549
F72.762346388073638
F77.453831225633621
tp1750
a(F125.09453251957893
F77.847096636891365
F76.742439061403275
tp1751
a(F125.06589403748512
F82.935156375169754
F74.531397998332977
tp1752
a(F125.02101591229439
F88.012542217969894
F70.591265916824341
tp1753
a(F124.96703301370144
F93.069671601057053
F64.642937391996384
tp1754
a(F124.91203755140305
F98.104657471179962
F56.322206348180771
tp1755
a(F124.86156605929136
F103.13196247816086
F45.108090192079544
tp1756
a(F124.81822347268462
F108.16724222898483
F30.287723630666733
tp1757
a(F124.78265426401049
F113.20416569709778
F10.987508721649647
tp1758
a(F128.06389690004289
F-64.726103395223618
F1.1970990002155304
tp1759
a(F128.0932833738625
F-63.566082358360291
F3.0871599912643433
tp1760
a(F128.12464459985495
F-62.336854338645935
F4.9700203239917755
tp1761
a(F128.15769473463297
F-61.030010759830475
F6.8439897000789642
tp1762
a(F128.19198514521122
F-59.635705322027206
F8.7069774270057678
tp1763
a(F128.22690345346928
F-58.142395824193954
F10.556402742862701
tp1764
a(F128.26204217970371
F-56.519211292266846
F12.407003581523895
tp1765
a(F128.29560254514217
F-54.799344748258591
F14.204148948192596
tp1766
a(F128.3273905813694
F-52.930583983659744
F15.973298758268356
tp1767
a(F128.35751602053642
F-50.831979155540466
F17.759607136249542
tp1768
a(F128.38451331853867
F-48.513021349906921
F19.506848931312561
tp1769
a(F128.40797656774521
F-45.928475394845009
F21.201673120260239
tp1770
a(F128.42770117521286
F-43.020707279443741
F22.824703723192215
tp1771
a(F128.44364115595818
F-39.719304852187634
F24.347685486078262
tp1772
a(F128.45584398508072
F-35.949418574571609
F25.730545967817307
tp1773
a(F128.46450337767601
F-31.588614769279957
F26.937914192676544
tp1774
a(F128.46964576840401
F-26.777971681207418
F27.904382169246674
tp1775
a(F128.47170534729958
F-21.843175113201141
F28.61370125412941
tp1776
a(F128.47155159711838
F-17.067530486732721
F29.151104122400284
tp1777
a(F128.47000026702881
F-12.785906106233597
F29.604473471641541
tp1778
a(F128.46738982200623
F-8.7666635103523731
F30.090537190437317
tp1779
a(F128.46373975276947
F-4.7968308925628662
F30.693196058273315
tp1780
a(F128.45918253064156
F-1.0291643850505352
F31.435102105140686
tp1781
a(F128.45380589365959
F2.5361546128988266
F32.331055372953415
tp1782
a(F128.44758039712906
F5.9912032559514046
F33.414132446050644
tp1783
a(F128.44043233990669
F9.4447182342410088
F34.727220445871353
tp1784
a(F128.43274733424187
F12.815620735287666
F36.241228044033051
tp1785
a(F128.42489811778069
F16.09723573923111
F37.94532173871994
tp1786
a(F128.41707289218903
F19.377766385674477
F39.870162844657898
tp1787
a(F128.40964993834496
F22.683402419090271
F42.021895945072174
tp1788
a(F128.40304362773895
F26.03967846930027
F44.404289186000824
tp1789
a(F128.3976848423481
F29.472195580601692
F47.017203271389008
tp1790
a(F128.39396384358406
F33.078903451561928
F49.913930624723434
tp1791
a(F128.39240264892578
F36.817572757601738
F53.020916014909744
tp1792
a(F128.39335897564888
F40.601363822817802
F56.208697736263275
tp1793
a(F128.39706271886826
F44.568425998091698
F59.512698233127594
tp1794
a(F128.40371784567833
F48.777935028076172
F62.873957574367523
tp1795
a(F128.41313189268112
F53.191444203257561
F66.115640461444855
tp1796
a(F128.4245853126049
F57.800622224807739
F69.052811205387115
tp1797
a(F128.43673324584961
F62.668438017368317
F71.492798268795013
tp1798
a(F128.44666218757629
F67.707862168550491
F73.152486324310303
tp1799
a(F128.45024329423904
F72.759960508556105
F73.748880863189697
tp1800
a(F128.4430880844593
F77.823381282389164
F73.102360486984253
tp1801
a(F128.42095267772675
F82.894359961152077
F71.022557884454727
tp1802
a(F128.38132745027542
F87.966201305389404
F67.291277974843979
tp1803
a(F128.32541382312775
F93.030204892158508
F61.639329522848129
tp1804
a(F128.25893807411194
F98.078524708747864
F53.716982960700989
tp1805
a(F128.19010497629642
F103.1185137629509
F43.028062880039215
tp1806
a(F128.12628360837698
F108.16208139061928
F28.895375952124596
tp1807
a(F128.07187747024
F113.20267000794411
F10.488406412303448
tp1808
a(F131.0405978616327
F-64.702169239521027
F1.0702252089977264
tp1809
a(F131.07453232631087
F-63.540271043777466
F2.6339727938175201
tp1810
a(F131.11019171774387
F-62.308772921562195
F4.1909803152084351
tp1811
a(F131.14701391011477
F-60.999402433633804
F5.739713191986084
tp1812
a(F131.18427050113678
F-59.602534592151642
F7.2783700823783875
tp1813
a(F131.22111707925797
F-58.106920093297958
F8.8048320710659027
tp1814
a(F131.25701639056206
F-56.482000231742859
F10.331372410058975
tp1815
a(F131.29017296433449
F-54.761307269334793
F11.813146829605103
tp1816
a(F131.32056444883347
F-52.892799034714699
F13.271455258131027
tp1817
a(F131.34849417209625
F-50.79566602408886
F14.743842750787735
tp1818
a(F131.37285462021828
F-48.479364305734634
F16.184363931417465
tp1819
a(F131.39357396960258
F-45.898493766784668
F17.582514554262161
tp1820
a(F131.41073024272919
F-42.99517810344696
F18.923095166683197
tp1821
a(F131.42448306083679
F-39.698731161653996
F20.1842240691185
tp1822
a(F131.43500697612762
F-35.934023052453995
F21.335650742053986
tp1823
a(F131.44254061579704
F-31.578408114612103
F22.354105025529861
tp1824
a(F131.44712552428246
F-26.772526744753122
F23.193639755249023
tp1825
a(F131.44909891486168
F-21.84165926463902
F23.848976582288742
tp1826
a(F131.44917196035385
F-17.06897365860641
F24.394101679325104
tp1827
a(F131.44802504777908
F-12.789303179830313
F24.894587099552155
tp1828
a(F131.44597804546356
F-8.7712356634438038
F25.452500611543655
tp1829
a(F131.44308868050575
F-4.8018744997680187
F26.143068939447403
tp1830
a(F131.43951267004013
F-1.0339342802762985
F26.977843731641769
tp1831
a(F131.43537658452988
F2.5323533564805984
F27.964583605527878
tp1832
a(F131.43072292208672
F5.9890258312225342
F29.133603751659393
tp1833
a(F131.42556849122047
F9.4448066651821136
F30.526513010263443
tp1834
a(F131.42026200890541
F12.818456217646599
F32.109311580657959
tp1835
a(F131.41512340307236
F16.10313555598259
F33.868772447109222
tp1836
a(F131.41033235192299
F19.386969104409218
F35.835516363382339
tp1837
a(F131.40619069337845
F22.696030050516129
F38.014349490404129
tp1838
a(F131.40301039814949
F26.055750146508217
F40.40779384970665
tp1839
a(F131.40109902620316
F29.491644501686096
F43.01460462808609
tp1840
a(F131.40076646208763
F33.101648285984993
F45.886340141296387
tp1841
a(F131.40229895710945
F36.843377664685249
F48.949437260627747
tp1842
a(F131.40578538179398
F40.629794329404831
F52.076385602355003
tp1843
a(F131.41134166717529
F44.59894585609436
F55.30283422768116
tp1844
a(F131.4189547598362
F48.809680819511414
F58.572363406419754
tp1845
a(F131.4282069504261
F53.222967803478241
F61.715018287301064
tp1846
a(F131.43833175301552
F57.829674884676933
F64.555338025093079
tp1847
a(F131.44823214411736
F62.691651090979576
F66.912573665380478
tp1848
a(F131.45590016245842
F67.720925725996494
F68.521011427044868
tp1849
a(F131.45879411697388
F72.758710686815903
F69.116623878479004
tp1850
a(F131.45422267913818
F77.805128894746304
F68.535804152488708
tp1851
a(F131.43882769346237
F82.859922587871552
F66.60456494987011
tp1852
a(F131.40865340828896
F87.921550825238228
F63.121369168162346
tp1853
a(F131.36018264293671
F92.985705018043518
F57.834242925047874
tp1854
a(F131.29303470253944
F98.044321119785309
F50.413126394152641
tp1855
a(F131.21271449327469
F103.09885260462761
F40.390310272574425
tp1856
a(F131.12987635284662
F108.15412056446075
F27.13042639195919
tp1857
a(F131.05503283441067
F113.2004080414772
F9.8562922477722168
tp1858
a(F134.0196632668376
F-64.665725588798523
F0.95087096095085144
tp1859
a(F134.0579486079514
F-63.501901477575302
F2.1856443881988525
tp1860
a(F134.09739906340837
F-62.268347024917603
F3.4139337837696075
tp1861
a(F134.13716334104538
F-60.957030415534973
F4.6344694793224335
tp1862
a(F134.17629225552082
F-59.558619052171707
F5.8458865284919739
tp1863
a(F134.21384201943874
F-58.062159061431885
F7.04668790102005
tp1864
a(F134.2493152320385
F-56.437337398529053
F8.2467838525772095
tp1865
a(F134.28113061189651
F-54.717802882194519
F9.4112432599067688
tp1866
a(F134.3095378279686
F-52.851509153842926
F10.557135969400406
tp1867
a(F134.33507573604584
F-50.757638409733772
F11.714276164770126
tp1868
a(F134.35697644948959
F-48.445406675338745
F12.846897184848785
tp1869
a(F134.37540170550346
F-45.869176998734474
F13.947173446416855
tp1870
a(F134.39058718085289
F-42.970835298299789
F15.003891915082932
tp1871
a(F134.40277999639511
F-39.679482579231262
F16.001288682222366
tp1872
a(F134.41218909621239
F-35.919798359274864
F16.918490767478943
tp1873
a(F134.4190426170826
F-31.569018390029669
F17.743416577577591
tp1874
a(F134.42336276173592
F-26.767448596656322
F18.448419243097305
tp1875
a(F134.42540594935417
F-21.840054458007216
F19.037975490093231
tp1876
a(F134.4257804453373
F-17.069906687363982
F19.574242025613785
tp1877
a(F134.42508122324944
F-12.791822850704193
F20.101530492305756
tp1878
a(F134.42364397644997
F-8.774587120860815
F20.706248819828033
tp1879
a(F134.42158114910126
F-4.8053580820560455
F21.453949928283691
tp1880
a(F134.41906994581223
F-1.0368295386433601
F22.346189826726913
tp1881
a(F134.41626232862473
F2.5307017937302589
F23.384364247322083
tp1882
a(F134.4132524728775
F5.9892259761691093
F24.59553450345993
tp1883
a(F134.41011893749237
F9.4474457204341888
F26.019016057252884
tp1884
a(F134.40714013576508
F12.82395014166832
F27.617473721504211
tp1885
a(F134.40455815196037
F16.111740365624428
F29.375975012779236
tp1886
a(F134.4025211930275
F19.398872926831245
F31.324224889278412
tp1887
a(F134.40123718976974
F22.711310550570488
F33.465728461742401
tp1888
a(F134.40090361237526
F26.074381738901138
F35.801877588033676
tp1889
a(F134.40169659256935
F29.513503193855286
F38.330503046512604
tp1890
a(F134.4038223028183
F33.126562193036079
F41.100238531827927
tp1891
a(F134.40735059976578
F36.870981901884079
F44.039619192481041
tp1892
a(F134.41216358542442
F40.659492194652557
F47.026408508419991
tp1893
a(F134.41828644275665
F44.629992783069611
F50.095547243952751
tp1894
a(F134.42557838559151
F48.841002076864243
F53.194477915763855
tp1895
a(F134.43357238173485
F53.25302018225193
F56.164046049118042
tp1896
a(F134.44163703918457
F57.856388136744499
F58.841955035924911
tp1897
a(F134.44902539253235
F62.712297521531582
F61.062819272279739
tp1898
a(F134.45450136065483
F67.732384134083986
F62.583143889904022
tp1899
a(F134.45661973953247
F72.75810674438253
F63.162174671888351
tp1900
a(F134.45384249091148
F77.79020993411541
F62.654136806726456
tp1901
a(F134.44387096166611
F82.829936668276787
F60.90381033718586
tp1902
a(F134.42307114601135
F87.878662437200546
F57.730512768030167
tp1903
a(F134.38606524467468
F92.936611101031303
F52.906349793076515
tp1904
a(F134.32679605484009
F97.999987810850143
F46.129695147275925
tp1905
a(F134.24295975267887
F103.06933078169823
F36.970073774456978
tp1906
a(F134.14261421561241
F108.14103075861931
F24.843185603618622
tp1907
a(F134.04311872646213
F113.19669991731644
F9.0382498949766159
tp1908
a(F136.76754345558584
F-64.616166323423386
F0.85024157166481018
tp1909
a(F136.80885552242398
F-63.451211512088776
F1.7874206006526947
tp1910
a(F136.85056481510401
F-62.216856569051743
F2.718333899974823
tp1911
a(F136.89165344834328
F-60.905304223299026
F3.6421030163764954
tp1912
a(F136.93112513422966
F-59.507426887750626
F4.5578958988189697
tp1913
a(F136.96812076866627
F-58.012399762868881
F5.4648646116256714
tp1914
a(F137.00232028961182
F-56.38996285200119
F6.3708032667636871
tp1915
a(F137.03243866562843
F-54.673607125878334
F7.2496483623981476
tp1916
a(F137.05895474553108
F-52.811165630817413
F8.1145447492599487
tp1917
a(F137.08256947994232
F-50.72175444662571
F8.9882301390171051
tp1918
a(F137.1027264893055
F-48.414288610219955
F9.843961775302887
tp1919
a(F137.1196876168251
F-45.842943333089352
F10.676205068826675
tp1920
a(F137.13373386859894
F-42.949452601373196
F11.477184504270554
tp1921
a(F137.14511889219284
F-39.66280148178339
F12.23641175031662
tp1922
a(F137.15403577685356
F-35.907572973519564
F12.94101893901825
tp1923
a(F137.16068521142006
F-31.560958113521338
F13.58807972073555
tp1924
a(F137.165063560009
F-26.76301883906126
F14.165157616138458
tp1925
a(F137.16737848520279
F-21.838481746613979
F14.68426376581192
tp1926
a(F137.16819387674332
F-17.070346375927329
F15.196331739425659
tp1927
a(F137.16806116700172
F-12.793427746742964
F15.727638065814972
tp1928
a(F137.16736301779747
F-8.7766682468354702
F16.349592089653015
tp1929
a(F137.16627642512321
F-4.8072639107704163
F17.118073433637619
tp1930
a(F137.16498324275017
F-1.0379107668995857
F18.026785790920258
tp1931
a(F137.16363593935966
F2.5310184136033058
F19.072116941213608
tp1932
a(F137.16235285997391
F5.9914597123861313
F20.27772256731987
tp1933
a(F137.1612406373024
F9.4520878866314888
F21.679877996444702
tp1934
a(F137.1604745388031
F12.831320367753506
F23.239833503961563
tp1935
a(F137.16020178794861
F16.122008845210075
F24.941795319318771
tp1936
a(F137.16052582859993
F19.412148877978325
F26.813813433051109
tp1937
a(F137.16155806183815
F22.72759835422039
F28.858282029628754
tp1938
a(F137.16338950395584
F26.093583717942238
F31.075667068362236
tp1939
a(F137.16608387231827
F29.535416722297668
F33.463165327906609
tp1940
a(F137.16975742578506
F33.150913178920746
F36.065607443451881
tp1941
a(F137.1743283867836
F36.897302865982056
F38.815456822514534
tp1942
a(F137.1795706152916
F40.687111884355545
F41.598497539758682
tp1943
a(F137.18547955155373
F44.658104658126831
F44.448022589087486
tp1944
a(F137.19188863039017
F48.868550181388855
F47.316196382045746
tp1945
a(F137.19839769601822
F53.278662621974945
F50.05732849240303
tp1946
a(F137.20456358790398
F57.8785165771842
F52.524503573775291
tp1947
a(F137.20993208885193
F62.728976681828499
F54.569493860006332
tp1948
a(F137.21377661824226
F67.741566333919764
F55.973698824644089
tp1949
a(F137.21528622508049
F72.757951888022944
F56.521892711520195
tp1950
a(F137.21358823776245
F77.779039993882179
F56.086566746234894
tp1951
a(F137.20719575881958
F82.806477941572666
F54.531854555010796
tp1952
a(F137.19336715340614
F87.842735216021538
F51.699037924408913
tp1953
a(F137.16706112027168
F92.89072448015213
F47.386929199099541
tp1954
a(F137.1198950111866
F97.951703310012817
F41.327427566051483
tp1955
a(F137.04156264662743
F103.03111377358437
F33.134367406368256
tp1956
a(F136.92969167232513
F108.12164300680161
F22.279851108789444
tp1957
a(F136.8031771928072
F113.19109332561493
F8.1234507709741592
tp1958
a(F139.14933908171952
F-64.55864942073822
F0.77050468325614929
tp1959
a(F139.19144140928984
F-63.394067764282227
F1.4632550179958344
tp1960
a(F139.23326571285725
F-62.160772427916527
F2.1502074301242828
tp1961
a(F139.2738229483366
F-60.851054459810257
F2.8308834731578827
tp1962
a(F139.3122343569994
F-59.455797672271729
F3.5049026310443878
tp1963
a(F139.34781822562218
F-57.964107260107994
F4.1718961000442505
tp1964
a(F139.38043457269669
F-56.345627591013908
F4.8378327786922455
tp1965
a(F139.40902134776115
F-54.633556559681892
F5.4837613105773926
tp1966
a(F139.434156447649
F-52.775617003440857
F6.1195131242275238
tp1967
a(F139.4565923511982
F-50.690894730389118
F6.7619659602642059
tp1968
a(F139.47584816813469
F-48.388054266571999
F7.3916639983654022
tp1969
a(F139.49218717217445
F-45.821171127259731
F8.0048674046993256
tp1970
a(F139.50586861371994
F-42.931913685053587
F8.5965000689029694
tp1971
a(F139.51711365580559
F-39.64922458678484
F9.1601619124412537
tp1972
a(F139.52608194947243
F-35.897650364786386
F9.689061313867569
tp1973
a(F139.53295230865479
F-31.554373802617192
F10.186743974685669
tp1974
a(F139.53770399093628
F-26.759276522323489
F10.65183436870575
tp1975
a(F139.54053178429604
F-21.836901569738984
F11.101084738969803
tp1976
a(F139.54200500249863
F-17.070194367319345
F11.575618237257004
tp1977
a(F139.54265433549881
F-12.793981071561575
F12.088173747062683
tp1978
a(F139.54293283820152
F-8.7773248292505741
F12.696890473365784
tp1979
a(F139.54308375716209
F-4.8074447326362133
F13.448709666728973
tp1980
a(F139.54326087236404
F-1.0370651185512543
F14.33217579126358
tp1981
a(F139.54358321428299
F2.5333564057946205
F15.340361565351486
tp1982
a(F139.54416447877884
F5.9956978932023048
F16.493635952472687
tp1983
a(F139.54510802030563
F9.4586000964045525
F17.824728101491928
tp1984
a(F139.54645931720734
F12.840314283967018
F19.295484751462936
tp1985
a(F139.54826554656029
F16.13355740904808
F20.890145942568779
tp1986
a(F139.55058547854424
F19.42626915872097
F22.63451974093914
tp1987
a(F139.55344718694687
F22.744211852550507
F24.530134797096252
tp1988
a(F139.55685976147652
F26.112516656517982
F26.576815441250801
tp1989
a(F139.56081029772758
F29.556397572159767
F28.771437495946884
tp1990
a(F139.56535959243774
F33.173594266176224
F31.154442757368088
tp1991
a(F139.57034707069397
F36.921177044510841
F33.663701951503754
tp1992
a(F139.57552149891853
F40.711530260741711
F36.195106163620949
tp1993
a(F139.58089619874954
F44.682323232293129
F38.779482752084732
tp1994
a(F139.58633726835251
F48.891669444739819
F41.374165296554565
tp1995
a(F139.59154686331749
F53.299642845988274
F43.848550140857697
tp1996
a(F139.5962441265583
F57.896210610866547
F46.072188258171082
tp1997
a(F139.60017338395119
F62.742080714553595
F47.914557918906212
tp1998
a(F139.60291174054146
F67.748767955228686
F49.182908773422241
tp1999
a(F139.60399603843689
F72.758082027314231
F49.688150659203529
tp2000
a(F139.6029207110405
F77.770898494869471
F49.320419773459435
tp2001
a(F139.59872943162918
F82.788821846246719
F47.962520405650139
tp2002
a(F139.58949527144432
F87.814475998282433
F45.477167069911957
tp2003
a(F139.57124483585358
F92.851779147982597
F41.689734250307083
tp2004
a(F139.5359303355217
F97.90533185005188
F36.366784065961838
tp2005
a(F139.46898698806763
F102.98750364780426
F29.170072689652443
tp2006
a(F139.35423788428307
F108.09530317783356
F19.632152304053307
tp2007
a(F139.20085774362087
F113.18294712901115
F7.1815192252397537
tp2008
a(F141.41910062357783
F-64.493096396327019
F0.69900399446487427
tp2009
a(F141.45944234356284
F-63.330542251467705
F1.1784922778606415
tp2010
a(F141.49910639971495
F-62.100093215703964
F1.6530913412570953
tp2011
a(F141.53729178011417
F-60.793973818421364
F2.122625321149826
tp2012
a(F141.57332481443882
F-59.402934640645981
F2.5869995057582855
tp2013
a(F141.60670819878578
F-57.915904611349106
F3.0461199879646301
tp2014
a(F141.63742128014565
F-56.302387222647667
F3.5042364597320557
tp2015
a(F141.66452866792679
F-54.595259375870228
F3.948441743850708
tp2016
a(F141.68859055638313
F-52.742188453674316
F4.3856192231178284
tp2017
a(F141.71032610535622
F-50.662282526493073
F4.8275087177753448
tp2018
a(F141.72924023866653
F-48.364002726972103
F5.2609307467937469
tp2019
a(F141.74553579092026
F-45.801380630582571
F5.6836543679237366
tp2020
a(F141.75940948724747
F-42.916064750403166
F6.0928428769111633
tp2021
a(F141.77102646231651
F-39.636989623308182
F6.4854178130626678
tp2022
a(F141.7805038690567
F-35.888688907027245
F6.8593742251396179
tp2023
a(F141.78801164031029
F-31.548345791175961
F7.2227834761142731
tp2024
a(F141.79352858662605
F-26.755679953843355
F7.5823807120323181
tp2025
a(F141.79727166891098
F-21.835067072883248
F7.9575086534023285
tp2026
a(F141.7998531460762
F-17.0694031547755
F8.3800472617149353
tp2027
a(F141.80177414417267
F-12.793543197214603
F8.852274477481842
tp2028
a(F141.80358070135117
F-8.7766548246145248
F9.4196888208389282
tp2029
a(F141.80557915568352
F-4.8059748187661171
F10.120340198278427
tp2030
a(F141.80783328413963
F-1.0342870205640793
F10.939653277397156
tp2031
a(F141.8103774189949
F2.5378475710749626
F11.868696182966232
tp2032
a(F141.81328952312469
F6.0022393241524696
F12.924417585134506
tp2033
a(F141.81664156913757
F9.4674845859408379
F14.135325759649277
tp2034
a(F141.82031291723251
F12.851657807826996
F15.465688094496727
tp2035
a(F141.82424715161324
F16.14734099060297
F16.900603875517845
tp2036
a(F141.82846984267235
F19.442417629063129
F18.462935447692871
tp2037
a(F141.83294433355331
F22.762555450201035
F20.153529480099678
tp2038
a(F141.83762681484222
F26.132793068885803
F21.971759617328644
tp2039
a(F141.84246581792831
F29.578254565596581
F23.914446353912354
tp2040
a(F141.84750387072563
F33.196605764329433
F26.016774773597717
tp2041
a(F141.85255843400955
F36.944792076945305
F28.22372667491436
tp2042
a(F141.85740947723389
F40.735111378133297
F30.443808734416962
tp2043
a(F141.86211690306664
F44.705171786248684
F32.704478845000267
tp2044
a(F141.86660540103912
F48.912993475794792
F34.968959286808968
tp2045
a(F141.87068375945091
F53.318594440817833
F37.124224185943604
tp2046
a(F141.87420189380646
F57.911910697817802
F39.058358520269394
tp2047
a(F141.87704014778137
F62.753560930490494
F40.660303115844727
tp2048
a(F141.87896949052811
F67.755083145573735
F41.765803754329681
tp2049
a(F141.87973716855049
F72.758388746064156
F42.214321255683899
tp2050
a(F141.87906205654144
F77.764239950105548
F41.914328753948212
tp2051
a(F141.87635284662247
F82.774022545665503
F40.768111765384674
tp2052
a(F141.87034168839455
F87.790096662938595
F38.660822749137878
tp2053
a(F141.85822305083275
F92.816403388977051
F35.445972084999084
tp2054
a(F141.83356285095215
F97.859061762690544
F30.927423939108849
tp2055
a(F141.78148186206818
F102.93652072548866
F24.820491060614586
tp2056
a(F141.67352089285851
F108.05737686157227
F16.728171944618225
tp2057
a(F141.49328886717558
F113.16966876387596
F6.153255894780159
tp2058
a(F143.55632857605815
F-64.42788390815258
F0.63469067215919495
tp2059
a(F143.59219106659293
F-63.268459491431713
F0.93866747617721558
tp2060
a(F143.62735379487276
F-62.041805788874626
F1.2390186488628387
tp2061
a(F143.66127767413855
F-60.740013457834721
F1.5357012450695038
tp2062
a(F143.69350858032703
F-59.353669002652168
F1.8287152349948883
tp2063
a(F143.72370052337646
F-57.871529139578342
F2.118054986000061
tp2064
a(F143.75188598036766
F-56.26298712939024
F2.4064475297927856
tp2065
a(F143.77719633281231
F-54.560646183788776
F2.6858320236206055
tp2066
a(F143.80009251832962
F-52.712167948484421
F2.9606248438358307
tp2067
a(F143.82120248675346
F-50.636714145541191
F3.2383153438568115
tp2068
a(F143.83997046947479
F-48.342584080994129
F3.51081183552742
tp2069
a(F143.85649806261063
F-45.783791311085224
F3.7770551145076752
tp2070
a(F143.87088984251022
F-42.901980221271515
F4.0359183847904205
tp2071
a(F143.88323667645454
F-39.626084934920073
F4.2867641150951385
tp2072
a(F143.89360934495926
F-35.880626501515508
F4.5309172570705414
tp2073
a(F143.90219438076019
F-31.542776143178344
F4.7788626849651337
tp2074
a(F143.90900483727455
F-26.752093326300383
F5.0422101020812988
tp2075
a(F143.91432437300682
F-21.832792915403843
F5.3406035006046295
tp2076
a(F143.91882839798927
F-17.067727657034993
F5.6974940598011017
tp2077
a(F143.92292204499245
F-12.791810657829046
F6.1081229746341705
tp2078
a(F143.92725178599358
F-8.7743042297661304
F6.6063146591186523
tp2079
a(F143.93215915560722
F-4.8024631105363369
F7.2214848399162292
tp2080
a(F143.93750160932541
F-1.0291697196662426
F7.9381388425827026
tp2081
a(F143.94314935803413
F2.5448915809392929
F8.7467236220836639
tp2082
a(F143.94910967350006
F6.0114532709121704
F9.6607445776462555
tp2083
a(F143.95539879798889
F9.4790568575263023
F10.703885465860367
tp2084
a(F143.96169921755791
F12.865592285990715
F11.844678789377213
tp2085
a(F143.96786865592003
F16.163510903716087
F13.069896221160889
tp2086
a(F143.97393491864204
F19.460643887519836
F14.398817375302315
tp2087
a(F143.9798364341259
F22.782572515308857
F15.831793501973152
tp2088
a(F143.98552319407463
F26.15425718575716
F17.367956578731537
tp2089
a(F143.99095445871353
F29.60075218975544
F19.004316598176956
tp2090
a(F143.99619752168655
F33.219664953649044
F20.770058110356331
tp2091
a(F144.00109830498695
F36.967863708734512
F22.61880087852478
tp2092
a(F144.00550544261932
F40.757619090378284
F24.473925322294235
tp2093
a(F144.00953811407089
F44.726507268846035
F26.358664110302925
tp2094
a(F144.01318499445915
F48.932502619922161
F28.242756307125092
tp2095
a(F144.01634651422501
F53.335622325539589
F30.032845035195351
tp2096
a(F144.01896631717682
F57.925809439271688
F31.637249782681465
tp2097
a(F144.02101051807404
F62.763624604791403
F32.96570397913456
tp2098
a(F144.02236795425415
F67.760634306818247
F33.884533926844597
tp2099
a(F144.02290925383568
F72.758817107416689
F34.263533927500248
tp2100
a(F144.02248671650887
F77.758785616606474
F34.029841676354408
tp2101
a(F144.02074787020683
F82.761638533324003
F33.105600029230118
tp2102
a(F144.01690027117729
F87.769282251596451
F31.399015724658966
tp2103
a(F144.00911623239517
F92.785104736685753
F28.792657732963562
tp2104
a(F143.99287831783295
F97.815151259303093
F25.12922465801239
tp2105
a(F143.95591017603874
F102.88097926974297
F20.18091544508934
tp2106
a(F143.86447584629059
F108.00509765744209
F13.630170539021492
tp2107
a(F143.66248276084661
F113.14706048369408
F5.0640350133180618
tp2108
a(F145.61202807165682
F-64.370696626603603
F0.57827246934175491
tp2109
a(F145.64081491157413
F-63.214514002203941
F0.74495956301689148
tp2110
a(F145.66913679242134
F-61.991502657532692
F0.90940949320793152
tp2111
a(F145.69671024382114
F-60.693649481981993
F1.0716002285480499
tp2112
a(F145.72328390181065
F-59.311428844928741
F1.2315223515033722
tp2113
a(F145.74864692986012
F-57.833487324416637
F1.3891610503196716
tp2114
a(F145.77286210656166
F-56.229160714894533
F1.545992374420166
tp2115
a(F145.7951602935791
F-54.530850782990456
F1.6976466476917267
tp2116
a(F145.81587728857994
F-52.686236318200827
F1.8465679287910461
tp2117
a(F145.83552460372448
F-50.614535689353943
F1.9968862533569336
tp2118
a(F145.85351100564003
F-48.323916684836149
F2.1443767249584198
tp2119
a(F145.86982926726341
F-45.768375340849161
F2.2887769937515259
tp2120
a(F145.88448402285576
F-42.889544133096933
F2.430081844329834
tp2121
a(F145.897490888834
F-39.616342065855861
F2.5691490471363068
tp2122
a(F145.90889358520508
F-35.87325603608042
F2.709077775478363
tp2123
a(F145.91896393895149
F-31.537409344688058
F2.8604951202869415
tp2124
a(F145.92784214019775
F-26.74818192049861
F3.0364372432231903
tp2125
a(F145.9359524846077
F-21.829626640304923
F3.2543733716011047
tp2126
a(F145.94400474429131
F-17.064571149647236
F3.5300945341587067
tp2127
a(F145.95209586620331
F-12.788044407963753
F3.8554060161113739
tp2128
a(F145.96093547344208
F-8.7694037333130836
F4.2533535361289978
tp2129
a(F145.9708124101162
F-4.7959288470447063
F4.7448911964893341
tp2130
a(F145.9811435341835
F-1.0206528790295124
F5.3159647881984711
tp2131
a(F145.99150013923645
F2.5555934384465218
F5.9579183161258698
tp2132
a(F146.00178238749504
F6.0244553685188293
F6.6807450652122498
tp2133
a(F146.01194176077843
F9.494409590959549
F7.5026328265666962
tp2134
a(F146.02144536375999
F12.883157551288605
F8.3984203338623047
tp2135
a(F146.03012317419052
F16.183031439781189
F9.3574678599834442
tp2136
a(F146.03808382153511
F19.48182225227356
F10.394725993275642
tp2137
a(F146.0453117787838
F22.805044710636139
F11.510236755013466
tp2138
a(F146.0518194437027
F26.177607044577599
F12.703089967370033
tp2139
a(F146.05763700604439
F29.624525032937527
F13.97074618935585
tp2140
a(F146.06290218234062
F33.243370771408081
F15.335476696491241
tp2141
a(F146.06752973794937
F36.990987066179514
F16.761291190981865
tp2142
a(F146.07145887613297
F40.779670558869839
F18.189064159989357
tp2143
a(F146.07486987113953
F44.746981624513865
F19.636825546622276
tp2144
a(F146.07780978083611
F48.950878452509642
F21.081562414765358
tp2145
a(F146.0802506506443
F53.351407207548618
F22.452130168676376
tp2146
a(F146.08219891786575
F57.938532561063766
F23.679191671311855
tp2147
a(F146.08367171883583
F62.772766256704926
F24.694975972175598
tp2148
a(F146.08462777733803
F67.76569802314043
F25.399023897945881
tp2149
a(F146.08500930666924
F72.759348010411486
F25.693824745714664
tp2150
a(F146.08474710583687
F77.754162363708019
F25.525799557566643
tp2151
a(F146.08364146947861
F82.750928804278374
F24.837647028267384
tp2152
a(F146.08122393488884
F87.751022674143314
F23.561635300517082
tp2153
a(F146.07639190554619
F92.756982780992985
F21.610879436135292
tp2154
a(F146.06631264090538
F97.773706123232841
F18.869048371911049
tp2155
a(F146.0424841940403
F102.82248701155186
F15.168690666556358
tp2156
a(F145.97455433011055
F107.93511964380741
F10.280386120080948
tp2157
a(F145.7640096694231
F113.10482603311539
F3.8979970514774323
tp2158
a(F147.66641921456903
F-64.326943382620811
F0.5330766960978508
tp2159
a(F147.68553011864424
F-63.173335455358028
F0.60051754117012024
tp2160
a(F147.70445445924997
F-61.953071335330606
F0.66699109971523285
tp2161
a(F147.72309991717339
F-60.658092277124524
F0.73247519135475159
tp2162
a(F147.7413774728775
F-59.278825348243117
F0.79694616794586182
tp2163
a(F147.75920245796442
F-57.803870854899287
F0.86037528514862061
tp2164
a(F147.77666265517473
F-56.202550914138556
F0.92333406209945679
tp2165
a(F147.79321120679379
F-54.507142869755626
F0.98405829071998596
tp2166
a(F147.80907392501831
F-52.665349178016186
F1.0435387790203094
tp2167
a(F147.82463544607162
F-50.596434358507395
F1.1034573316574097
tp2168
a(F147.83940979838371
F-48.308466693386436
F1.1622281968593597
tp2169
a(F147.85334727168083
F-45.755416765809059
F1.2199719548225403
tp2170
a(F147.86642061173916
F-42.878886639140546
F1.2771544456481934
tp2171
a(F147.87865576148033
F-39.607749857008457
F1.3350721597671509
tp2172
a(F147.89020237326622
F-35.86641539260745
F1.3968689739704132
tp2173
a(F147.90165285766125
F-31.531888927333057
F1.4707459807395935
tp2174
a(F147.91358572244644
F-26.743326036259532
F1.5672955513000488
tp2175
a(F147.92676538228989
F-21.824620697647333
F1.6989122629165649
tp2176
a(F147.9417849779129
F-17.058633677661419
F1.8742842078208923
tp2177
a(F147.95783910155296
F-12.78063115850091
F2.0856221318244934
tp2178
a(F147.97551211714745
F-8.7600816730409861
F2.3458483517169952
tp2179
a(F147.99477684497833
F-4.7843042388558388
F2.667364627122879
tp2180
a(F148.01407182216644
F-1.0065555684268475
F3.040261834859848
tp2181
a(F148.03239506483078
F2.5721659250557423
F3.4585777521133423
tp2182
a(F148.04950532317162
F6.0434153042733669
F3.9287147223949432
tp2183
a(F148.06532809138298
F9.5156008265912533
F4.4625066816806793
tp2184
a(F148.07914409041405
F12.906248290091753
F5.0436509549617767
tp2185
a(F148.09091666340828
F16.207604430615902
F5.6652034968137741
tp2186
a(F148.10100883245468
F19.507450327277184
F6.3368143141269684
tp2187
a(F148.10958501696587
F22.831273801624775
F7.0583862364292145
tp2188
a(F148.11682763695717
F26.203973494470119
F7.8291675001382828
tp2189
a(F148.12291678786278
F29.650568287819624
F8.6473301500082016
tp2190
a(F148.12811180949211
F33.268620155751705
F9.5270085036754608
tp2191
a(F148.13242942094803
F37.014997467398643
F10.44485367834568
tp2192
a(F148.1359099149704
F40.802066132426262
F11.362677574157715
tp2193
a(F148.13879123330116
F44.767370732501149
F12.292055144906044
tp2194
a(F148.14116874337196
F48.968865260481834
F13.218276560306549
tp2195
a(F148.14306628704071
F53.366638220846653
F14.095918454229832
tp2196
a(F148.14452946186066
F57.950675573199987
F14.88101003319025
tp2197
a(F148.14560329914093
F62.781436207704246
F15.53087691962719
tp2198
a(F148.14628574252129
F67.770523911342025
F15.982241541147232
tp2199
a(F148.14655870199203
F72.759980689268559
F16.173887453973293
tp2200
a(F148.14639720320702
F77.75007465435192
F16.072794780135155
tp2201
a(F148.14569443464279
F82.741272416897118
F15.643654957413673
tp2202
a(F148.14418792724609
F87.734386153519154
F14.844669714570045
tp2203
a(F148.14125791192055
F92.730955455452204
F13.622164882719517
tp2204
a(F148.13530278205872
F97.734073292464018
F11.904493406414986
tp2205
a(F148.12130013108253
F102.76193658262491
F9.5898288041353226
tp2206
a(F148.07807344198227
F107.84521177411079
F6.5454954355955124
tp2207
a(F147.88402208685875
F113.01659199595451
F2.6115208864212036
tp2208
a(F149.71953735593706
F-64.302960402797908
F0.50709952041506767
tp2209
a(F149.72646982781589
F-63.150737046729773
F0.52128889411687851
tp2210
a(F149.73337139375508
F-61.931895531713963
F0.53533130139112473
tp2211
a(F149.7402332406491
F-60.638368133455515
F0.5492180623114109
tp2212
a(F149.74704556912184
F-59.260572768747807
F0.56293869018554688
tp2213
a(F149.75379750132561
F-57.787100326269865
F0.57648053020238876
tp2214
a(F149.76054256781936
F-56.187278025783598
F0.58995945751667023
tp2215
a(F149.76708395779133
F-54.493329651188105
F0.60299170017242432
tp2216
a(F149.77352246642113
F-52.652974562253803
F0.6157878115773201
tp2217
a(F149.78004039078951
F-50.585501237539575
F0.62871725857257843
tp2218
a(F149.78647527843714
F-48.298920487053692
F0.64146482944488525
tp2219
a(F149.79286824911833
F-45.74717217637226
F0.65411947667598724
tp2220
a(F149.7993365675211
F-42.871808321913704
F0.66692048311233521
tp2221
a(F149.80616521090269
F-39.601618094136938
F0.68043977022171021
tp2222
a(F149.81398736685514
F-35.860867767594755
F0.69594407081604004
tp2223
a(F149.82428862154484
F-31.526331710396335
F0.71641480922698975
tp2224
a(F149.83892697095871
F-26.736882526660338
F0.74566999077796936
tp2225
a(F149.85967941582203
F-21.816301460377872
F0.78766891360282898
tp2226
a(F149.88695316016674
F-17.047633211594075
F0.84432956576347351
tp2227
a(F149.91801637411118
F-12.766629514284432
F0.91200089454650879
tp2228
a(F149.95283558964729
F-8.7429119357839227
F0.99400132894515991
tp2229
a(F149.990374147892
F-4.7638768162578344
F1.0938117504119873
tp2230
a(F150.02675271034241
F-0.98311680182814598
F1.2086694240570068
tp2231
a(F150.05961957573891
F2.598200922831893
F1.337691456079483
tp2232
a(F150.08845594525337
F6.0715755634009838
F1.4840063750743866
tp2233
a(F150.1132949590683
F9.5453862883150578
F1.6524641215801239
tp2234
a(F150.13341483473778
F12.937074266374111
F1.8387824296951294
tp2235
a(F150.14933001995087
F16.238901391625404
F2.0410639494657516
tp2236
a(F150.1620377600193
F19.538707604631782
F2.2625322937965393
tp2237
a(F150.17213624715805
F22.862025184556842
F2.5031138807535172
tp2238
a(F150.18014904856682
F26.233801051042974
F2.7624015659093857
tp2239
a(F150.18651002645493
F29.679100323468447
F3.039561927318573
tp2240
a(F150.19165644049644
F33.295488875359297
F3.3391808271408081
tp2241
a(F150.19573080539703
F37.039900336414576
F3.6531015485525131
tp2242
a(F150.19887480139732
F40.824793518520892
F3.9679545164108276
tp2243
a(F150.20137795805931
F44.787675309926271
F4.2874476984143257
tp2244
a(F150.20337226986885
F48.986490657553077
F4.6063455119729042
tp2245
a(F150.20491495728493
F53.381368814501911
F4.908847264945507
tp2246
a(F150.20607286691666
F57.962305544409901
F5.1796814352273941
tp2247
a(F150.20690363645554
F62.789696431951597
F5.4040919914841652
tp2248
a(F150.20742386579514
F67.775147303706035
F5.5602862313389778
tp2249
a(F150.20763406157494
F72.760705515829613
F5.6272542402148247
tp2250
a(F150.20752981305122
F77.746456206659786
F5.5938138887286186
tp2251
a(F150.20705118775368
F82.732549051288515
F5.4481151401996613
tp2252
a(F150.20604214072227
F87.719238424673676
F5.1762591153383255
tp2253
a(F150.204136967659
F92.707030490040779
F4.7606391534209251
tp2254
a(F150.20040699839592
F97.696937812492251
F4.1783686205744743
tp2255
a(F150.19195079803467
F102.70238111913204
F3.3988965153694153
tp2256
a(F150.16576206684113
F107.7419260032475
F2.3917751908302307
tp2257
a(F150.0105419754982
F112.83784063160419
F1.1718543767929077
tp2258
as.