(lp0
(lp1
(F86.163922744592114
F32.549454529456149
F0.0
tp2
a(F58.33742004780224
F57.361419434093783
F0.0
tp3
a(F36.308105412843595
F33.477004619349138
F0.0
tp4
a(F43.264731087041056
F13.766565209122982
F0.0
tp5
a(F74.105771575983169
F16.085440433855474
F0.0
tp6
a(F86.163922744592114
F32.549454529456149
F0.0
tp7
aa.